
test_memory_march.elf:     file format elf32-epiphany


Disassembly of section ivt_reset:

00000000 <_start>:
   0:	2ce8 0000 	b 58 <.normal_start>

Disassembly of section .reserved_crt0:

00000058 <.normal_start>:
  58:	6c0b 0062 	mov r3,0x660
  5c:	600b 1002 	movt r3,0x0
  60:	0d52      	jalr r3
	...

Disassembly of section NEW_LIB_RO:

00000064 <_exit>:
  64:	955c 0700 	str r4,[sp],-0x2
  68:	540b 0002 	mov r2,0xa0
  6c:	2003      	mov r1,0x0
  6e:	400b 1002 	movt r2,0x0
  72:	d5dc 2400 	str lr,[sp,+0x3]
  76:	80e2      	mov r4,r0
  78:	0952      	jalr r2
  7a:	138b 0002 	mov r0,0x9c
  7e:	000b 1002 	movt r0,0x0
  82:	0044      	ldr r0,[r0]
  84:	23cc 0001 	ldr r1,[r0,+0xf]
  88:	4433      	sub r2,r1,0
  8a:	0200      	beq 8e <_exit+0x2a>
  8c:	0552      	jalr r1
  8e:	250b 0062 	mov r1,0x628
  92:	10e2      	mov r0,r4
  94:	200b 1002 	movt r1,0x0
  98:	0552      	jalr r1
  9a:	01a2      	nop

0000009c <__global_impure_ptr>:
  9c:	01e0      	b 9e <__global_impure_ptr+0x2>
	...

000000a0 <___call_exitprocs>:
  a0:	538b 0002 	mov r2,0x9c
  a4:	97fc 0700 	strd r4,[sp],-0x7
  a8:	400b 1002 	movt r2,0x0
  ac:	567c 2400 	strd r10,[sp,+0x4]
  b0:	484c 2000 	ldr r10,[r2,+0x0]
  b4:	157c 8400 	strd r32,[sp,+0x2]
  b8:	200b 8002 	mov r33,0x0
  bc:	16fc 2400 	strd r8,[sp,+0x5]
  c0:	d77c 0400 	strd r6,[sp,+0x6]
  c4:	60ef 2002 	mov fp,r0
  c8:	c4e2      	mov r6,r1
  ca:	081b 8429 	add r32,r10,328
  ce:	002b 2002 	mov r8,0x1
  d2:	200b 2002 	mov r9,0x0
  d6:	200b 9002 	movt r33,0x0
  da:	d5fc 2400 	strd lr,[sp,+0x3]
  de:	54fc 8400 	strd r34,[sp,+0x1]
  e2:	e94c 040a 	ldr r7,[r10,+0x52]
  e6:	1c33      	sub r0,r7,0
  e8:	4500      	beq 172 <___call_exitprocs+0xd2>
  ea:	60ef 9002 	mov r35,r32
  ee:	1cc4      	ldr r0,[r7,0x1]
  f0:	8393      	add r4,r0,-1
  f2:	3033      	sub r1,r4,0
  f4:	3c80      	blt 16c <___call_exitprocs+0xcc>
  f6:	a39b 0003 	add r5,r0,31
  fa:	fc1b 2011 	add r15,r7,136
  fe:	b456      	lsl r5,r5,0x2
 100:	be9f 040a 	add r5,r15,r5
 104:	08e0      	b 114 <___call_exitprocs+0x74>
 106:	3444      	ldr r1,[r5]
 108:	673a      	sub r3,r1,r6
 10a:	0700      	beq 118 <___call_exitprocs+0x78>
 10c:	9393      	add r4,r4,-1
 10e:	b613      	add r5,r5,-4
 110:	13b3      	sub r0,r4,-1
 112:	2d00      	beq 16c <___call_exitprocs+0xcc>
 114:	1833      	sub r0,r6,0
 116:	f810      	bne 106 <___call_exitprocs+0x66>
 118:	5cc4      	ldr r2,[r7,0x1]
 11a:	37bf 008a 	sub r1,r5,r15
 11e:	3c9a      	add r1,r7,r1
 120:	4b93      	add r2,r2,-1
 122:	6a3a      	sub r3,r2,r4
 124:	474c 0103 	ldr r2,[r1,-0x1e]
 128:	3900      	beq 19a <___call_exitprocs+0xfa>
 12a:	275c 2103 	str r9,[r1,-0x1e]
 12e:	0833      	sub r0,r2,0
 130:	ee00      	beq 10c <___call_exitprocs+0x6c>
 132:	1d4c 000c 	ldr r0,[r7,+0x62]
 136:	222f 040a 	lsl r1,r8,r4
 13a:	045a      	and r0,r1,r0
 13c:	5ccc 8000 	ldr r34,[r7,+0x1]
 140:	2b00      	beq 196 <___call_exitprocs+0xf6>
 142:	1dcc 000c 	ldr r0,[r7,+0x63]
 146:	245a      	and r1,r1,r0
 148:	2b10      	bne 19e <___call_exitprocs+0xfe>
 14a:	344c 0104 	ldr r1,[r5,-0x20]
 14e:	0cef 0402 	mov r0,fp
 152:	0952      	jalr r2
 154:	1cc4      	ldr r0,[r7,0x1]
 156:	213f 020a 	sub r1,r0,r34
 15a:	c410      	bne e2 <___call_exitprocs+0x42>
 15c:	0c4c 1000 	ldr r0,[r35,+0x0]
 160:	63ba      	sub r3,r0,r7
 162:	c010      	bne e2 <___call_exitprocs+0x42>
 164:	9393      	add r4,r4,-1
 166:	b613      	add r5,r5,-4
 168:	13b3      	sub r0,r4,-1
 16a:	d510      	bne 114 <___call_exitprocs+0x74>
 16c:	643b 1000 	sub r3,r33,0
 170:	1b10      	bne 1a6 <___call_exitprocs+0x106>
 172:	d76c 0400 	ldrd r6,[sp,+0x6]
 176:	16ec 2400 	ldrd r8,[sp,+0x5]
 17a:	566c 2400 	ldrd r10,[sp,+0x4]
 17e:	d5ec 2400 	ldrd lr,[sp,+0x3]
 182:	156c 8400 	ldrd r32,[sp,+0x2]
 186:	54ec 8400 	ldrd r34,[sp,+0x1]
 18a:	b41b 2407 	add sp,sp,56
 18e:	946c 0400 	ldrd r4,[sp,+0x0]
 192:	194f 0402 	rts
 196:	0952      	jalr r2
 198:	dee0      	b 154 <___call_exitprocs+0xb4>
 19a:	9cd4      	str r4,[r7,0x1]
 19c:	c9e0      	b 12e <___call_exitprocs+0x8e>
 19e:	144c 0104 	ldr r0,[r5,-0x20]
 1a2:	0952      	jalr r2
 1a4:	d8e0      	b 154 <___call_exitprocs+0xb4>
 1a6:	1cc4      	ldr r0,[r7,0x1]
 1a8:	2033      	sub r1,r0,0
 1aa:	0e10      	bne 1c6 <___call_exitprocs+0x126>
 1ac:	3c44      	ldr r1,[r7]
 1ae:	6433      	sub r3,r1,0
 1b0:	1000      	beq 1d0 <___call_exitprocs+0x130>
 1b2:	1ce2      	mov r0,r7
 1b4:	2c5c 1000 	str r1,[r35]
 1b8:	055f 1002 	jalr r33
 1bc:	ec4c 1000 	ldr r7,[r35,+0x0]
 1c0:	1c33      	sub r0,r7,0
 1c2:	9610      	bne ee <___call_exitprocs+0x4e>
 1c4:	d7e0      	b 172 <___call_exitprocs+0xd2>
 1c6:	1c44      	ldr r0,[r7]
 1c8:	7cef 8002 	mov r35,r7
 1cc:	e0e2      	mov r7,r0
 1ce:	f9e0      	b 1c0 <___call_exitprocs+0x120>
 1d0:	0003      	mov r0,0x0
 1d2:	fbe0 	b 1c8 <___call_exitprocs+0x128>

Disassembly of section NEW_LIB_WR:

000001d8 <__impure_ptr>:
 1d8:	01e0      	b 1da <__impure_ptr+0x2>
 1da:	0000      	beq 1da <__impure_ptr+0x2>
 1dc:	0000      	beq 1dc <__impure_ptr+0x4>
	...

000001e0 <_impure_data>:
 1e0:	0000      	beq 1e0 <_impure_data>
 1e2:	0000      	beq 1e2 <_impure_data+0x2>
 1e4:	04d8 0000 	bblte 1ec <_impure_data+0xc>
 1e8:	0548 0000 	blteu 1f2 <_impure_data+0x12>
 1ec:	05b8 0000 	bbne 1f6 <_impure_data+0x16>
	...
 214:	0dc8 0000 	bblt 22e <_impure_data+0x4e>
	...
 290:	0001      	ldrb r0,[r0,r0]
 292:	0000      	beq 292 <_impure_data+0xb2>
 294:	0000      	beq 294 <_impure_data+0xb4>
 296:	0000      	beq 296 <_impure_data+0xb6>
 298:	330e      	asr r1,r4,0x18
 29a:	abcd 1234 	*unknown*
 29e:	e66d deec 	*unknown*
 2a2:	0005      	ldrb r0,[r0],r0
 2a4:	000b 0000 	*unknown*
	...

Disassembly of section GNU_C_BUILTIN_LIB_RO:

00000628 <__exit>:
 628:	0fe2      	trap 0x3
 62a:	ffe8 ffff 	b 628 <__exit>

Disassembly of section .init:

0000062e <init>:
 62e:	d65c 2700 	str lr,[sp],-0x4
 632:	178b 0072 	mov r0,0x7bc
 636:	000b 1002 	movt r0,0x0
 63a:	0152      	jalr r0
 63c:	0a8b 00d2 	mov r0,0xd54
 640:	000b 1002 	movt r0,0x0
 644:	0152      	jalr r0
 646:	d64c 2400 	ldr lr,[sp,+0x4]
 64a:	b41b 2402 	add sp,sp,16
 64e:	194f 0402 	rts

Disassembly of section .text:

00000660 <_epiphany_start>:
 660:	be0b 27f2 	mov sp,0x7ff0
 664:	a00b 3002 	movt sp,0x0
 668:	74ef 2402 	mov fp,sp
 66c:	1a0b 00d2 	mov r0,0xdd0
 670:	000b 1002 	movt r0,0x0
 674:	3b0b 00d2 	mov r1,0xdd8
 678:	200b 1002 	movt r1,0x0
 67c:	4003      	mov r2,0x0
 67e:	6003      	mov r3,0x0
 680:	40fc 0200 	strd r2,[r0],+0x1
 684:	a43a      	sub r5,r1,r0
 686:	fd10      	bne 680 <_epiphany_start+0x20>
 688:	5b0b 0012 	mov r2,0x1d8
 68c:	400b 1002 	movt r2,0x0
 690:	4844      	ldr r2,[r2]
 692:	320b 00d2 	mov r1,0xd90
 696:	200b 1002 	movt r1,0x0
 69a:	0a1b 0029 	add r0,r2,332
 69e:	00dc 0100 	str r0,[r0,-0x1]
 6a2:	0023      	mov r0,0x1
 6a4:	097c 0005 	strd r0,[r2,+0x2a]
 6a8:	45cb 0062 	mov r2,0x62e
 6ac:	400b 1002 	movt r2,0x0
 6b0:	0952      	jalr r2
 6b2:	1feb 0ff2 	mov r0,0xffff
 6b6:	050f 0402 	movts imask,r0
 6ba:	190b 0062 	mov r0,0x6c8
 6be:	000b 1002 	movt r0,0x0
 6c2:	010f 0402 	movts iret,r0
 6c6:	01d2      	rti

000006c8 <RDS>:
 6c8:	0003      	mov r0,0x0
 6ca:	2003      	mov r1,0x0
 6cc:	4003      	mov r2,0x0
 6ce:	7e0b 0072 	mov r3,0x7f0
 6d2:	600b 1002 	movt r3,0x0
 6d6:	0d52      	jalr r3
 6d8:	6c8b 0002 	mov r3,0x64
 6dc:	600b 1002 	movt r3,0x0
 6e0:	0d52      	jalr r3
 6e2:	01b2      	idle
	...

000006f0 <_deregister_tm_clones>:
 6f0:	188b 00d2 	mov r0,0xdc4
 6f4:	38eb 00d2 	mov r1,0xdc7
 6f8:	000b 1002 	movt r0,0x0
 6fc:	200b 1002 	movt r1,0x0
 700:	243a      	sub r1,r1,r0
 702:	473b 0000 	sub r2,r1,6
 706:	0320      	bgtu 70c <_deregister_tm_clones+0x1c>
 708:	194f 0402 	rts
 70c:	200b 0002 	mov r1,0x0
 710:	200b 1002 	movt r1,0x0
 714:	4433      	sub r2,r1,0
 716:	f900      	beq 708 <_deregister_tm_clones+0x18>
 718:	0542      	jr r1
 71a:	01a2      	nop

0000071c <_register_tm_clones>:
 71c:	188b 00d2 	mov r0,0xdc4
 720:	388b 00d2 	mov r1,0xdc4
 724:	000b 1002 	movt r0,0x0
 728:	200b 1002 	movt r1,0x0
 72c:	243a      	sub r1,r1,r0
 72e:	244e      	asr r1,r1,0x2
 730:	47e6      	lsr r2,r1,0x1f
 732:	289a      	add r1,r2,r1
 734:	242e      	asr r1,r1,0x1
 736:	4433      	sub r2,r1,0
 738:	0310      	bne 73e <_register_tm_clones+0x22>
 73a:	194f 0402 	rts
 73e:	400b 0002 	mov r2,0x0
 742:	400b 1002 	movt r2,0x0
 746:	6833      	sub r3,r2,0
 748:	f900      	beq 73a <_register_tm_clones+0x1e>
 74a:	0942      	jr r2

0000074c <___do_global_dtors_aux>:
 74c:	95fc 0700 	strd r4,[sp],-0x3
 750:	d57c 0400 	strd r6,[sp,+0x2]
 754:	fa0b 00d2 	mov r7,0xdd0
 758:	e00b 1002 	movt r7,0x0
 75c:	1c04      	ldrb r0,[r7]
 75e:	d5dc 2400 	str lr,[sp,+0x3]
 762:	2033      	sub r1,r0,0
 764:	2210      	bne 7a8 <___do_global_dtors_aux+0x5c>
 766:	d68b 00d2 	mov r6,0xdb4
 76a:	b70b 00d2 	mov r5,0xdb8
 76e:	c00b 1002 	movt r6,0x0
 772:	9a8b 00d2 	mov r4,0xdd4
 776:	a00b 1002 	movt r5,0x0
 77a:	b73a      	sub r5,r5,r6
 77c:	800b 1002 	movt r4,0x0
 780:	b44e      	asr r5,r5,0x2
 782:	1044      	ldr r0,[r4]
 784:	b793      	add r5,r5,-1
 786:	22ba      	sub r1,r0,r5
 788:	0930      	bgteu 79a <___do_global_dtors_aux+0x4e>
 78a:	0093      	add r0,r0,1
 78c:	2056      	lsl r1,r0,0x2
 78e:	38c1      	ldr r1,[r6,r1]
 790:	1054      	str r0,[r4]
 792:	0552      	jalr r1
 794:	1044      	ldr r0,[r4]
 796:	22ba      	sub r1,r0,r5
 798:	f950      	bltu 78a <___do_global_dtors_aux+0x3e>
 79a:	1e0b 0062 	mov r0,0x6f0
 79e:	000b 1002 	movt r0,0x0
 7a2:	0152      	jalr r0
 7a4:	0023      	mov r0,0x1
 7a6:	1c14      	strb r0,[r7]
 7a8:	d56c 0400 	ldrd r6,[sp,+0x2]
 7ac:	d5cc 2400 	ldr lr,[sp,+0x3]
 7b0:	b41b 2403 	add sp,sp,24
 7b4:	946c 0400 	ldrd r4,[sp,+0x0]
 7b8:	194f 0402 	rts

000007bc <_frame_dummy>:
 7bc:	178b 00d2 	mov r0,0xdbc
 7c0:	000b 1002 	movt r0,0x0
 7c4:	2044      	ldr r1,[r0]
 7c6:	d55c 2700 	str lr,[sp],-0x2
 7ca:	4433      	sub r2,r1,0
 7cc:	0800      	beq 7dc <_frame_dummy+0x20>
 7ce:	200b 0002 	mov r1,0x0
 7d2:	200b 1002 	movt r1,0x0
 7d6:	4433      	sub r2,r1,0
 7d8:	0200      	beq 7dc <_frame_dummy+0x20>
 7da:	0552      	jalr r1
 7dc:	038b 0072 	mov r0,0x71c
 7e0:	d54c 2400 	ldr lr,[sp,+0x2]
 7e4:	000b 1002 	movt r0,0x0
 7e8:	b41b 2401 	add sp,sp,8
 7ec:	0142      	jr r0
 7ee:	01a2      	nop

000007f0 <_main>:
 7f0:	765c 2702 	str fp,[sp],-0x14
 7f4:	d6dc 2402 	str lr,[sp,+0x15]
 7f8:	74ef 2402 	mov fp,sp
 7fc:	0edc 0400 	str r0,[fp,+0x5]
 800:	2e5c 0400 	str r1,[fp,+0x4]
 804:	0043      	mov r0,0x2
 806:	0fdc 0401 	str r0,[fp,+0xf]
 80a:	0043      	mov r0,0x2
 80c:	0f5c 0401 	str r0,[fp,+0xe]
 810:	0023      	mov r0,0x1
 812:	0c5c 0402 	str r0,[fp,+0x10]
 816:	1fe3      	mov r0,0xff
 818:	0edc 0401 	str r0,[fp,+0xd]
 81c:	0003      	mov r0,0x0
 81e:	0e5c 0401 	str r0,[fp,+0xc]
 822:	120b 00c2 	mov r0,0xc90
 826:	000b 1002 	movt r0,0x0
 82a:	0152      	jalr r0
 82c:	0ddc 0401 	str r0,[fp,+0xb]
 830:	0003      	mov r0,0x0
 832:	0d5c 0402 	str r0,[fp,+0x12]
 836:	14e8 0002 	b c5e <__HEAP_SIZE_FOR_CORE_+0x45e>
 83a:	0003      	mov r0,0x0
 83c:	0cdc 0402 	str r0,[fp,+0x11]
 840:	03e8 0002 	b c46 <__HEAP_SIZE_FOR_CORE_+0x446>
 844:	0d4c 0402 	ldr r0,[fp,+0x12]
 848:	2356      	lsl r1,r0,0x1a
 84a:	0dcc 0401 	ldr r0,[fp,+0xb]
 84e:	241a      	add r1,r1,r0
 850:	0ccc 0402 	ldr r0,[fp,+0x11]
 854:	0296      	lsl r0,r0,0x14
 856:	041a      	add r0,r1,r0
 858:	0d5c 0401 	str r0,[fp,+0xa]
 85c:	2d4c 0401 	ldr r1,[fp,+0xa]
 860:	0dcc 0401 	ldr r0,[fp,+0xb]
 864:	443a      	sub r2,r1,r0
 866:	eb08 0001 	beq c3c <__HEAP_SIZE_FOR_CORE_+0x43c>
 86a:	0003      	mov r0,0x0
 86c:	0ddc 0402 	str r0,[fp,+0x13]
 870:	18e0      	b 8a0 <__HEAP_SIZE_FOR_CORE_+0xa0>
 872:	2d4c 0401 	ldr r1,[fp,+0xa]
 876:	0dcc 0402 	ldr r0,[fp,+0x13]
 87a:	041a      	add r0,r1,r0
 87c:	0cdc 0401 	str r0,[fp,+0x9]
 880:	0e4c 0401 	ldr r0,[fp,+0xc]
 884:	0c5c 0401 	str r0,[fp,+0x8]
 888:	0c4c 0401 	ldr r0,[fp,+0x8]
 88c:	2316      	lsl r1,r0,0x18
 88e:	2706      	lsr r1,r1,0x18
 890:	0ccc 0401 	ldr r0,[fp,+0x9]
 894:	2014      	strb r1,[r0]
 896:	0dcc 0402 	ldr r0,[fp,+0x13]
 89a:	0093      	add r0,r0,1
 89c:	0ddc 0402 	str r0,[fp,+0x13]
 8a0:	2dcc 0402 	ldr r1,[fp,+0x13]
 8a4:	1feb 07f2 	mov r0,0x7fff
 8a8:	443a      	sub r2,r1,r0
 8aa:	e440      	blteu 872 <__HEAP_SIZE_FOR_CORE_+0x72>
 8ac:	0003      	mov r0,0x0
 8ae:	0ddc 0402 	str r0,[fp,+0x13]
 8b2:	64e0      	b 97a <__HEAP_SIZE_FOR_CORE_+0x17a>
 8b4:	2d4c 0401 	ldr r1,[fp,+0xa]
 8b8:	0dcc 0402 	ldr r0,[fp,+0x13]
 8bc:	041a      	add r0,r1,r0
 8be:	0cdc 0401 	str r0,[fp,+0x9]
 8c2:	0e4c 0401 	ldr r0,[fp,+0xc]
 8c6:	0fdc 0400 	str r0,[fp,+0x7]
 8ca:	0ccc 0401 	ldr r0,[fp,+0x9]
 8ce:	0004      	ldrb r0,[r0]
 8d0:	0f5c 0400 	str r0,[fp,+0x6]
 8d4:	2f4c 0400 	ldr r1,[fp,+0x6]
 8d8:	0fcc 0400 	ldr r0,[fp,+0x7]
 8dc:	443a      	sub r2,r1,r0
 8de:	0400      	beq 8e6 <__HEAP_SIZE_FOR_CORE_+0xe6>
 8e0:	0003      	mov r0,0x0
 8e2:	0c5c 0402 	str r0,[fp,+0x10]
 8e6:	0ecc 0401 	ldr r0,[fp,+0xd]
 8ea:	0c5c 0401 	str r0,[fp,+0x8]
 8ee:	0c4c 0401 	ldr r0,[fp,+0x8]
 8f2:	2316      	lsl r1,r0,0x18
 8f4:	2706      	lsr r1,r1,0x18
 8f6:	0ccc 0401 	ldr r0,[fp,+0x9]
 8fa:	2014      	strb r1,[r0]
 8fc:	0ecc 0401 	ldr r0,[fp,+0xd]
 900:	0fdc 0400 	str r0,[fp,+0x7]
 904:	0ccc 0401 	ldr r0,[fp,+0x9]
 908:	0004      	ldrb r0,[r0]
 90a:	0f5c 0400 	str r0,[fp,+0x6]
 90e:	2f4c 0400 	ldr r1,[fp,+0x6]
 912:	0fcc 0400 	ldr r0,[fp,+0x7]
 916:	443a      	sub r2,r1,r0
 918:	0400      	beq 920 <__HEAP_SIZE_FOR_CORE_+0x120>
 91a:	0003      	mov r0,0x0
 91c:	0c5c 0402 	str r0,[fp,+0x10]
 920:	0e4c 0401 	ldr r0,[fp,+0xc]
 924:	0c5c 0401 	str r0,[fp,+0x8]
 928:	0c4c 0401 	ldr r0,[fp,+0x8]
 92c:	2316      	lsl r1,r0,0x18
 92e:	2706      	lsr r1,r1,0x18
 930:	0ccc 0401 	ldr r0,[fp,+0x9]
 934:	2014      	strb r1,[r0]
 936:	0e4c 0401 	ldr r0,[fp,+0xc]
 93a:	0fdc 0400 	str r0,[fp,+0x7]
 93e:	0ccc 0401 	ldr r0,[fp,+0x9]
 942:	0004      	ldrb r0,[r0]
 944:	0f5c 0400 	str r0,[fp,+0x6]
 948:	2f4c 0400 	ldr r1,[fp,+0x6]
 94c:	0fcc 0400 	ldr r0,[fp,+0x7]
 950:	443a      	sub r2,r1,r0
 952:	0400      	beq 95a <__HEAP_SIZE_FOR_CORE_+0x15a>
 954:	0003      	mov r0,0x0
 956:	0c5c 0402 	str r0,[fp,+0x10]
 95a:	0ecc 0401 	ldr r0,[fp,+0xd]
 95e:	0c5c 0401 	str r0,[fp,+0x8]
 962:	0c4c 0401 	ldr r0,[fp,+0x8]
 966:	2316      	lsl r1,r0,0x18
 968:	2706      	lsr r1,r1,0x18
 96a:	0ccc 0401 	ldr r0,[fp,+0x9]
 96e:	2014      	strb r1,[r0]
 970:	0dcc 0402 	ldr r0,[fp,+0x13]
 974:	0093      	add r0,r0,1
 976:	0ddc 0402 	str r0,[fp,+0x13]
 97a:	2dcc 0402 	ldr r1,[fp,+0x13]
 97e:	1feb 07f2 	mov r0,0x7fff
 982:	443a      	sub r2,r1,r0
 984:	9840      	blteu 8b4 <__HEAP_SIZE_FOR_CORE_+0xb4>
 986:	0003      	mov r0,0x0
 988:	0ddc 0402 	str r0,[fp,+0x13]
 98c:	35e0      	b 9f6 <__HEAP_SIZE_FOR_CORE_+0x1f6>
 98e:	2d4c 0401 	ldr r1,[fp,+0xa]
 992:	0dcc 0402 	ldr r0,[fp,+0x13]
 996:	041a      	add r0,r1,r0
 998:	0cdc 0401 	str r0,[fp,+0x9]
 99c:	0ecc 0401 	ldr r0,[fp,+0xd]
 9a0:	0fdc 0400 	str r0,[fp,+0x7]
 9a4:	0ccc 0401 	ldr r0,[fp,+0x9]
 9a8:	0004      	ldrb r0,[r0]
 9aa:	0f5c 0400 	str r0,[fp,+0x6]
 9ae:	2f4c 0400 	ldr r1,[fp,+0x6]
 9b2:	0fcc 0400 	ldr r0,[fp,+0x7]
 9b6:	443a      	sub r2,r1,r0
 9b8:	0400      	beq 9c0 <__HEAP_SIZE_FOR_CORE_+0x1c0>
 9ba:	0003      	mov r0,0x0
 9bc:	0c5c 0402 	str r0,[fp,+0x10]
 9c0:	0e4c 0401 	ldr r0,[fp,+0xc]
 9c4:	0c5c 0401 	str r0,[fp,+0x8]
 9c8:	0c4c 0401 	ldr r0,[fp,+0x8]
 9cc:	2316      	lsl r1,r0,0x18
 9ce:	2706      	lsr r1,r1,0x18
 9d0:	0ccc 0401 	ldr r0,[fp,+0x9]
 9d4:	2014      	strb r1,[r0]
 9d6:	0ecc 0401 	ldr r0,[fp,+0xd]
 9da:	0c5c 0401 	str r0,[fp,+0x8]
 9de:	0c4c 0401 	ldr r0,[fp,+0x8]
 9e2:	2316      	lsl r1,r0,0x18
 9e4:	2706      	lsr r1,r1,0x18
 9e6:	0ccc 0401 	ldr r0,[fp,+0x9]
 9ea:	2014      	strb r1,[r0]
 9ec:	0dcc 0402 	ldr r0,[fp,+0x13]
 9f0:	0093      	add r0,r0,1
 9f2:	0ddc 0402 	str r0,[fp,+0x13]
 9f6:	2dcc 0402 	ldr r1,[fp,+0x13]
 9fa:	1feb 07f2 	mov r0,0x7fff
 9fe:	443a      	sub r2,r1,r0
 a00:	c740      	blteu 98e <__HEAP_SIZE_FOR_CORE_+0x18e>
 a02:	0003      	mov r0,0x0
 a04:	0ddc 0402 	str r0,[fp,+0x13]
 a08:	43e0      	b a8e <__HEAP_SIZE_FOR_CORE_+0x28e>
 a0a:	2d4c 0401 	ldr r1,[fp,+0xa]
 a0e:	0dcc 0402 	ldr r0,[fp,+0x13]
 a12:	243a      	sub r1,r1,r0
 a14:	1feb 07f2 	mov r0,0x7fff
 a18:	041a      	add r0,r1,r0
 a1a:	0cdc 0401 	str r0,[fp,+0x9]
 a1e:	0ecc 0401 	ldr r0,[fp,+0xd]
 a22:	0fdc 0400 	str r0,[fp,+0x7]
 a26:	0ccc 0401 	ldr r0,[fp,+0x9]
 a2a:	0004      	ldrb r0,[r0]
 a2c:	0f5c 0400 	str r0,[fp,+0x6]
 a30:	2f4c 0400 	ldr r1,[fp,+0x6]
 a34:	0fcc 0400 	ldr r0,[fp,+0x7]
 a38:	443a      	sub r2,r1,r0
 a3a:	0400      	beq a42 <__HEAP_SIZE_FOR_CORE_+0x242>
 a3c:	0003      	mov r0,0x0
 a3e:	0c5c 0402 	str r0,[fp,+0x10]
 a42:	0e4c 0401 	ldr r0,[fp,+0xc]
 a46:	0c5c 0401 	str r0,[fp,+0x8]
 a4a:	0c4c 0401 	ldr r0,[fp,+0x8]
 a4e:	2316      	lsl r1,r0,0x18
 a50:	2706      	lsr r1,r1,0x18
 a52:	0ccc 0401 	ldr r0,[fp,+0x9]
 a56:	2014      	strb r1,[r0]
 a58:	0ecc 0401 	ldr r0,[fp,+0xd]
 a5c:	0c5c 0401 	str r0,[fp,+0x8]
 a60:	0c4c 0401 	ldr r0,[fp,+0x8]
 a64:	2316      	lsl r1,r0,0x18
 a66:	2706      	lsr r1,r1,0x18
 a68:	0ccc 0401 	ldr r0,[fp,+0x9]
 a6c:	2014      	strb r1,[r0]
 a6e:	0e4c 0401 	ldr r0,[fp,+0xc]
 a72:	0c5c 0401 	str r0,[fp,+0x8]
 a76:	0c4c 0401 	ldr r0,[fp,+0x8]
 a7a:	2316      	lsl r1,r0,0x18
 a7c:	2706      	lsr r1,r1,0x18
 a7e:	0ccc 0401 	ldr r0,[fp,+0x9]
 a82:	2014      	strb r1,[r0]
 a84:	0dcc 0402 	ldr r0,[fp,+0x13]
 a88:	0093      	add r0,r0,1
 a8a:	0ddc 0402 	str r0,[fp,+0x13]
 a8e:	2dcc 0402 	ldr r1,[fp,+0x13]
 a92:	1feb 07f2 	mov r0,0x7fff
 a96:	443a      	sub r2,r1,r0
 a98:	b940      	blteu a0a <__HEAP_SIZE_FOR_CORE_+0x20a>
 a9a:	0003      	mov r0,0x0
 a9c:	0ddc 0402 	str r0,[fp,+0x13]
 aa0:	38e0      	b b10 <__HEAP_SIZE_FOR_CORE_+0x310>
 aa2:	2d4c 0401 	ldr r1,[fp,+0xa]
 aa6:	0dcc 0402 	ldr r0,[fp,+0x13]
 aaa:	243a      	sub r1,r1,r0
 aac:	1feb 07f2 	mov r0,0x7fff
 ab0:	041a      	add r0,r1,r0
 ab2:	0cdc 0401 	str r0,[fp,+0x9]
 ab6:	0e4c 0401 	ldr r0,[fp,+0xc]
 aba:	0fdc 0400 	str r0,[fp,+0x7]
 abe:	0ccc 0401 	ldr r0,[fp,+0x9]
 ac2:	0004      	ldrb r0,[r0]
 ac4:	0f5c 0400 	str r0,[fp,+0x6]
 ac8:	2f4c 0400 	ldr r1,[fp,+0x6]
 acc:	0fcc 0400 	ldr r0,[fp,+0x7]
 ad0:	443a      	sub r2,r1,r0
 ad2:	0400      	beq ada <__HEAP_SIZE_FOR_CORE_+0x2da>
 ad4:	0003      	mov r0,0x0
 ad6:	0c5c 0402 	str r0,[fp,+0x10]
 ada:	0ecc 0401 	ldr r0,[fp,+0xd]
 ade:	0c5c 0401 	str r0,[fp,+0x8]
 ae2:	0c4c 0401 	ldr r0,[fp,+0x8]
 ae6:	2316      	lsl r1,r0,0x18
 ae8:	2706      	lsr r1,r1,0x18
 aea:	0ccc 0401 	ldr r0,[fp,+0x9]
 aee:	2014      	strb r1,[r0]
 af0:	0e4c 0401 	ldr r0,[fp,+0xc]
 af4:	0c5c 0401 	str r0,[fp,+0x8]
 af8:	0c4c 0401 	ldr r0,[fp,+0x8]
 afc:	2316      	lsl r1,r0,0x18
 afe:	2706      	lsr r1,r1,0x18
 b00:	0ccc 0401 	ldr r0,[fp,+0x9]
 b04:	2014      	strb r1,[r0]
 b06:	0dcc 0402 	ldr r0,[fp,+0x13]
 b0a:	0093      	add r0,r0,1
 b0c:	0ddc 0402 	str r0,[fp,+0x13]
 b10:	2dcc 0402 	ldr r1,[fp,+0x13]
 b14:	1feb 07f2 	mov r0,0x7fff
 b18:	443a      	sub r2,r1,r0
 b1a:	c440      	blteu aa2 <__HEAP_SIZE_FOR_CORE_+0x2a2>
 b1c:	0003      	mov r0,0x0
 b1e:	0ddc 0402 	str r0,[fp,+0x13]
 b22:	3fe0      	b ba0 <__HEAP_SIZE_FOR_CORE_+0x3a0>
 b24:	2d4c 0401 	ldr r1,[fp,+0xa]
 b28:	0dcc 0402 	ldr r0,[fp,+0x13]
 b2c:	243a      	sub r1,r1,r0
 b2e:	1feb 07f2 	mov r0,0x7fff
 b32:	041a      	add r0,r1,r0
 b34:	0cdc 0401 	str r0,[fp,+0x9]
 b38:	0e4c 0401 	ldr r0,[fp,+0xc]
 b3c:	0fdc 0400 	str r0,[fp,+0x7]
 b40:	0ccc 0401 	ldr r0,[fp,+0x9]
 b44:	0004      	ldrb r0,[r0]
 b46:	0f5c 0400 	str r0,[fp,+0x6]
 b4a:	2f4c 0400 	ldr r1,[fp,+0x6]
 b4e:	0fcc 0400 	ldr r0,[fp,+0x7]
 b52:	443a      	sub r2,r1,r0
 b54:	0400      	beq b5c <__HEAP_SIZE_FOR_CORE_+0x35c>
 b56:	0003      	mov r0,0x0
 b58:	0c5c 0402 	str r0,[fp,+0x10]
 b5c:	0ecc 0401 	ldr r0,[fp,+0xd]
 b60:	0c5c 0401 	str r0,[fp,+0x8]
 b64:	0c4c 0401 	ldr r0,[fp,+0x8]
 b68:	2316      	lsl r1,r0,0x18
 b6a:	2706      	lsr r1,r1,0x18
 b6c:	0ccc 0401 	ldr r0,[fp,+0x9]
 b70:	2014      	strb r1,[r0]
 b72:	0ecc 0401 	ldr r0,[fp,+0xd]
 b76:	0fdc 0400 	str r0,[fp,+0x7]
 b7a:	0ccc 0401 	ldr r0,[fp,+0x9]
 b7e:	0004      	ldrb r0,[r0]
 b80:	0f5c 0400 	str r0,[fp,+0x6]
 b84:	2f4c 0400 	ldr r1,[fp,+0x6]
 b88:	0fcc 0400 	ldr r0,[fp,+0x7]
 b8c:	443a      	sub r2,r1,r0
 b8e:	0400      	beq b96 <__HEAP_SIZE_FOR_CORE_+0x396>
 b90:	0003      	mov r0,0x0
 b92:	0c5c 0402 	str r0,[fp,+0x10]
 b96:	0dcc 0402 	ldr r0,[fp,+0x13]
 b9a:	0093      	add r0,r0,1
 b9c:	0ddc 0402 	str r0,[fp,+0x13]
 ba0:	2dcc 0402 	ldr r1,[fp,+0x13]
 ba4:	1feb 07f2 	mov r0,0x7fff
 ba8:	443a      	sub r2,r1,r0
 baa:	bd40      	blteu b24 <__HEAP_SIZE_FOR_CORE_+0x324>
 bac:	0003      	mov r0,0x0
 bae:	0ddc 0402 	str r0,[fp,+0x13]
 bb2:	3fe0      	b c30 <__HEAP_SIZE_FOR_CORE_+0x430>
 bb4:	2d4c 0401 	ldr r1,[fp,+0xa]
 bb8:	0dcc 0402 	ldr r0,[fp,+0x13]
 bbc:	243a      	sub r1,r1,r0
 bbe:	1feb 07f2 	mov r0,0x7fff
 bc2:	041a      	add r0,r1,r0
 bc4:	0cdc 0401 	str r0,[fp,+0x9]
 bc8:	0ecc 0401 	ldr r0,[fp,+0xd]
 bcc:	0fdc 0400 	str r0,[fp,+0x7]
 bd0:	0ccc 0401 	ldr r0,[fp,+0x9]
 bd4:	0004      	ldrb r0,[r0]
 bd6:	0f5c 0400 	str r0,[fp,+0x6]
 bda:	2f4c 0400 	ldr r1,[fp,+0x6]
 bde:	0fcc 0400 	ldr r0,[fp,+0x7]
 be2:	443a      	sub r2,r1,r0
 be4:	0400      	beq bec <__HEAP_SIZE_FOR_CORE_+0x3ec>
 be6:	0003      	mov r0,0x0
 be8:	0c5c 0402 	str r0,[fp,+0x10]
 bec:	0e4c 0401 	ldr r0,[fp,+0xc]
 bf0:	0c5c 0401 	str r0,[fp,+0x8]
 bf4:	0c4c 0401 	ldr r0,[fp,+0x8]
 bf8:	2316      	lsl r1,r0,0x18
 bfa:	2706      	lsr r1,r1,0x18
 bfc:	0ccc 0401 	ldr r0,[fp,+0x9]
 c00:	2014      	strb r1,[r0]
 c02:	0e4c 0401 	ldr r0,[fp,+0xc]
 c06:	0fdc 0400 	str r0,[fp,+0x7]
 c0a:	0ccc 0401 	ldr r0,[fp,+0x9]
 c0e:	0004      	ldrb r0,[r0]
 c10:	0f5c 0400 	str r0,[fp,+0x6]
 c14:	2f4c 0400 	ldr r1,[fp,+0x6]
 c18:	0fcc 0400 	ldr r0,[fp,+0x7]
 c1c:	443a      	sub r2,r1,r0
 c1e:	0400      	beq c26 <__HEAP_SIZE_FOR_CORE_+0x426>
 c20:	0003      	mov r0,0x0
 c22:	0c5c 0402 	str r0,[fp,+0x10]
 c26:	0dcc 0402 	ldr r0,[fp,+0x13]
 c2a:	0093      	add r0,r0,1
 c2c:	0ddc 0402 	str r0,[fp,+0x13]
 c30:	2dcc 0402 	ldr r1,[fp,+0x13]
 c34:	1feb 07f2 	mov r0,0x7fff
 c38:	443a      	sub r2,r1,r0
 c3a:	bd40      	blteu bb4 <__HEAP_SIZE_FOR_CORE_+0x3b4>
 c3c:	0ccc 0402 	ldr r0,[fp,+0x11]
 c40:	0093      	add r0,r0,1
 c42:	0cdc 0402 	str r0,[fp,+0x11]
 c46:	2ccc 0402 	ldr r1,[fp,+0x11]
 c4a:	0f4c 0401 	ldr r0,[fp,+0xe]
 c4e:	443a      	sub r2,r1,r0
 c50:	fa58 fffd 	bltu 844 <__HEAP_SIZE_FOR_CORE_+0x44>
 c54:	0d4c 0402 	ldr r0,[fp,+0x12]
 c58:	0093      	add r0,r0,1
 c5a:	0d5c 0402 	str r0,[fp,+0x12]
 c5e:	2d4c 0402 	ldr r1,[fp,+0x12]
 c62:	0fcc 0401 	ldr r0,[fp,+0xf]
 c66:	443a      	sub r2,r1,r0
 c68:	e958 fffd 	bltu 83a <__HEAP_SIZE_FOR_CORE_+0x3a>
 c6c:	0c4c 0402 	ldr r0,[fp,+0x10]
 c70:	388b 00c2 	mov r1,0xcc4
 c74:	200b 1002 	movt r1,0x0
 c78:	0552      	jalr r1
 c7a:	acef 2402 	mov sp,fp
 c7e:	d6cc 2402 	ldr lr,[sp,+0x15]
 c82:	764c 2402 	ldr fp,[sp,+0x14]
 c86:	b41b 240a 	add sp,sp,80
 c8a:	194f 0402 	rts
 c8e:	01a2      	nop

00000c90 <_e_test_init>:
 c90:	775c 2700 	str fp,[sp],-0x6
 c94:	74ef 2402 	mov fp,sp
 c98:	2003      	mov r1,0x0
 c9a:	2edc 0400 	str r1,[fp,+0x5]
 c9e:	2ecc 0400 	ldr r1,[fp,+0x5]
 ca2:	4003      	mov r2,0x0
 ca4:	4454      	str r2,[r1]
 ca6:	2003      	mov r1,0x0
 ca8:	250f 0402 	movts imask,r1
 cac:	051f 0032 	movfs r0,coreid
 cb0:	0296      	lsl r0,r0,0x14
 cb2:	acef 2402 	mov sp,fp
 cb6:	774c 2400 	ldr fp,[sp,+0x6]
 cba:	b41b 2403 	add sp,sp,24
 cbe:	194f 0402 	rts
 cc2:	01a2      	nop

00000cc4 <_e_test_finish>:
 cc4:	775c 2700 	str fp,[sp],-0x6
 cc8:	74ef 2402 	mov fp,sp
 ccc:	0ddc 0400 	str r0,[fp,+0x3]
 cd0:	0003      	mov r0,0x0
 cd2:	0edc 0400 	str r0,[fp,+0x5]
 cd6:	0dcc 0400 	ldr r0,[fp,+0x3]
 cda:	20b3      	sub r1,r0,1
 cdc:	0910      	bne cee <_e_test_finish+0x2a>
 cde:	0ecc 0400 	ldr r0,[fp,+0x5]
 ce2:	2f0b 0562 	mov r1,0x5678
 ce6:	268b 1122 	movt r1,0x1234
 cea:	2054      	str r1,[r0]
 cec:	08e0      	b cfc <_e_test_finish+0x38>
 cee:	0ecc 0400 	ldr r0,[fp,+0x5]
 cf2:	3deb 0be2 	mov r1,0xbeef
 cf6:	35ab 1de2 	movt r1,0xdead
 cfa:	2054      	str r1,[r0]
 cfc:	00e0      	b cfc <_e_test_finish+0x38>
 cfe:	01a2      	nop

00000d00 <_e_write_ack>:
 d00:	775c 2700 	str fp,[sp],-0x6
 d04:	74ef 2402 	mov fp,sp
 d08:	0ddc 0400 	str r0,[fp,+0x3]
 d0c:	0dcc 0400 	ldr r0,[fp,+0x3]
 d10:	0044      	ldr r0,[r0]
 d12:	0edc 0400 	str r0,[fp,+0x5]
 d16:	2ecc 0400 	ldr r1,[fp,+0x5]
 d1a:	1feb 0ff2 	mov r0,0xffff
 d1e:	1feb 1ff2 	movt r0,0xffff
 d22:	040a      	eor r0,r1,r0
 d24:	0edc 0400 	str r0,[fp,+0x5]
 d28:	0dcc 0400 	ldr r0,[fp,+0x3]
 d2c:	2ecc 0400 	ldr r1,[fp,+0x5]
 d30:	2054      	str r1,[r0]
 d32:	01a2      	nop
 d34:	0dcc 0400 	ldr r0,[fp,+0x3]
 d38:	2044      	ldr r1,[r0]
 d3a:	0ecc 0400 	ldr r0,[fp,+0x5]
 d3e:	443a      	sub r2,r1,r0
 d40:	fa10      	bne d34 <_e_write_ack+0x34>
 d42:	acef 2402 	mov sp,fp
 d46:	774c 2400 	ldr fp,[sp,+0x6]
 d4a:	b41b 2403 	add sp,sp,24
 d4e:	194f 0402 	rts
 d52:	01a2      	nop

00000d54 <___do_global_ctors_aux>:
 d54:	160b 00d2 	mov r0,0xdb0
 d58:	000b 1002 	movt r0,0x0
 d5c:	00cc 0100 	ldr r0,[r0,-0x1]
 d60:	955c 0700 	str r4,[sp],-0x2
 d64:	d5dc 2400 	str lr,[sp,+0x3]
 d68:	950b 00d2 	mov r4,0xda8
 d6c:	23b3      	sub r1,r0,-1
 d6e:	800b 1002 	movt r4,0x0
 d72:	0600      	beq d7e <___do_global_ctors_aux+0x2a>
 d74:	0152      	jalr r0
 d76:	10cc 0300 	ldr r0,[r4],-0x1
 d7a:	23b3      	sub r1,r0,-1
 d7c:	fc10      	bne d74 <___do_global_ctors_aux+0x20>
 d7e:	d5cc 2400 	ldr lr,[sp,+0x3]
 d82:	954c 0400 	ldr r4,[sp,+0x2]
 d86:	b41b 2401 	add sp,sp,8
 d8a:	194f 0402 	rts
 d8e:	01a2 	nop

Disassembly of section .fini:

00000d90 <fini>:
 d90:	d65c 2700 	str lr,[sp],-0x4
 d94:	098b 0072 	mov r0,0x74c
 d98:	000b 1002 	movt r0,0x0
 d9c:	0152      	jalr r0
 d9e:	d64c 2400 	ldr lr,[sp,+0x4]
 da2:	b41b 2402 	add sp,sp,16
 da6:	194f 0402 	rts
