
e-task.elf:     file format elf32-epiphany


Disassembly of section ivt_reset:

00000000 <_start>:
   0:	2ce8 0000 	b 58 <.normal_start>

Disassembly of section workgroup_config:

00000028 <_e_group_config>:
	...

Disassembly of section external_mem_config:

00000050 <_e_emem_config>:
	...

Disassembly of section .reserved_crt0:

00000058 <.normal_start>:
  58:	700b 0062 	mov r3,0x680
  5c:	600b 1002 	movt r3,0x0
  60:	0d52      	jalr r3
	...

Disassembly of section .data_bank0:

00000064 <__dma_copy_descriptor_-0x4>:
  64:	0000      	beq 64 <.normal_start+0xc>
	...

00000068 <__dma_copy_descriptor_>:
	...

Disassembly of section NEW_LIB_RO:

00000080 <_exit>:
  80:	965c 0700 	str r4,[sp],-0x4
  84:	580b 0002 	mov r2,0xc0
  88:	2003      	mov r1,0x0
  8a:	400b 1002 	movt r2,0x0
  8e:	76dc 2400 	str fp,[sp,+0x5]
  92:	d5dc 2400 	str lr,[sp,+0x3]
  96:	80e2      	mov r4,r0
  98:	0952      	jalr r2
  9a:	178b 0002 	mov r0,0xbc
  9e:	000b 1002 	movt r0,0x0
  a2:	0044      	ldr r0,[r0]
  a4:	23cc 0001 	ldr r1,[r0,+0xf]
  a8:	4433      	sub r2,r1,0
  aa:	0200      	beq ae <_exit+0x2e>
  ac:	0552      	jalr r1
  ae:	290b 0062 	mov r1,0x648
  b2:	10e2      	mov r0,r4
  b4:	200b 1002 	movt r1,0x0
  b8:	0552      	jalr r1
  ba:	01a2      	nop

000000bc <__global_impure_ptr>:
  bc:	0200      	beq c0 <___call_exitprocs>
	...

000000c0 <___call_exitprocs>:
  c0:	578b 0002 	mov r2,0xbc
  c4:	97fc 0700 	strd r4,[sp],-0x7
  c8:	400b 1002 	movt r2,0x0
  cc:	567c 2400 	strd r10,[sp,+0x4]
  d0:	684c 2000 	ldr fp,[r2,+0x0]
  d4:	54fc 8400 	strd r34,[sp,+0x1]
  d8:	400b 8002 	mov r34,0x0
  dc:	157c 8400 	strd r32,[sp,+0x2]
  e0:	d77c 0400 	strd r6,[sp,+0x6]
  e4:	16fc 2400 	strd r8,[sp,+0x5]
  e8:	00ef 8002 	mov r32,r0
  ec:	c4e2      	mov r6,r1
  ee:	2c1b 8429 	add r33,fp,328
  f2:	202b 2002 	mov r9,0x1
  f6:	400b 2002 	mov r10,0x0
  fa:	400b 9002 	movt r34,0x0
  fe:	d5fc 2400 	strd lr,[sp,+0x3]
 102:	ed4c 040a 	ldr r7,[fp,+0x52]
 106:	1c33      	sub r0,r7,0
 108:	4500      	beq 192 <___call_exitprocs+0xd2>
 10a:	64ef 9002 	mov r35,r33
 10e:	1cc4      	ldr r0,[r7,0x1]
 110:	8393      	add r4,r0,-1
 112:	3033      	sub r1,r4,0
 114:	3c80      	blt 18c <___call_exitprocs+0xcc>
 116:	a39b 0003 	add r5,r0,31
 11a:	1c1b 2011 	add r8,r7,136
 11e:	b456      	lsl r5,r5,0x2
 120:	a29f 040a 	add r5,r8,r5
 124:	08e0      	b 134 <___call_exitprocs+0x74>
 126:	3444      	ldr r1,[r5]
 128:	073a      	sub r0,r1,r6
 12a:	0700      	beq 138 <___call_exitprocs+0x78>
 12c:	9393      	add r4,r4,-1
 12e:	b613      	add r5,r5,-4
 130:	33b3      	sub r1,r4,-1
 132:	2d00      	beq 18c <___call_exitprocs+0xcc>
 134:	3833      	sub r1,r6,0
 136:	f810      	bne 126 <___call_exitprocs+0x66>
 138:	5cc4      	ldr r2,[r7,0x1]
 13a:	343f 008a 	sub r1,r5,r8
 13e:	3c9a      	add r1,r7,r1
 140:	4b93      	add r2,r2,-1
 142:	0a3a      	sub r0,r2,r4
 144:	474c 0103 	ldr r2,[r1,-0x1e]
 148:	3900      	beq 1ba <___call_exitprocs+0xfa>
 14a:	475c 2103 	str r10,[r1,-0x1e]
 14e:	2833      	sub r1,r2,0
 150:	ee00      	beq 12c <___call_exitprocs+0x6c>
 152:	7d4c 000c 	ldr r3,[r7,+0x62]
 156:	262f 040a 	lsl r1,r9,r4
 15a:	65da      	and r3,r1,r3
 15c:	fccc 2000 	ldr r15,[r7,+0x1]
 160:	2b00      	beq 1b6 <___call_exitprocs+0xf6>
 162:	1dcc 000c 	ldr r0,[r7,+0x63]
 166:	245a      	and r1,r1,r0
 168:	2b10      	bne 1be <___call_exitprocs+0xfe>
 16a:	344c 0104 	ldr r1,[r5,-0x20]
 16e:	00ef 1002 	mov r0,r32
 172:	0952      	jalr r2
 174:	3cc4      	ldr r1,[r7,0x1]
 176:	07bf 008a 	sub r0,r1,r15
 17a:	c410      	bne 102 <___call_exitprocs+0x42>
 17c:	0c4c 1000 	ldr r0,[r35,+0x0]
 180:	23ba      	sub r1,r0,r7
 182:	c010      	bne 102 <___call_exitprocs+0x42>
 184:	9393      	add r4,r4,-1
 186:	b613      	add r5,r5,-4
 188:	33b3      	sub r1,r4,-1
 18a:	d510      	bne 134 <___call_exitprocs+0x74>
 18c:	083b 1000 	sub r0,r34,0
 190:	1b10      	bne 1c6 <___call_exitprocs+0x106>
 192:	d76c 0400 	ldrd r6,[sp,+0x6]
 196:	16ec 2400 	ldrd r8,[sp,+0x5]
 19a:	566c 2400 	ldrd r10,[sp,+0x4]
 19e:	d5ec 2400 	ldrd lr,[sp,+0x3]
 1a2:	156c 8400 	ldrd r32,[sp,+0x2]
 1a6:	54ec 8400 	ldrd r34,[sp,+0x1]
 1aa:	b41b 2407 	add sp,sp,56
 1ae:	946c 0400 	ldrd r4,[sp,+0x0]
 1b2:	194f 0402 	rts
 1b6:	0952      	jalr r2
 1b8:	dee0      	b 174 <___call_exitprocs+0xb4>
 1ba:	9cd4      	str r4,[r7,0x1]
 1bc:	c9e0      	b 14e <___call_exitprocs+0x8e>
 1be:	144c 0104 	ldr r0,[r5,-0x20]
 1c2:	0952      	jalr r2
 1c4:	d8e0      	b 174 <___call_exitprocs+0xb4>
 1c6:	1cc4      	ldr r0,[r7,0x1]
 1c8:	2033      	sub r1,r0,0
 1ca:	0e10      	bne 1e6 <___call_exitprocs+0x126>
 1cc:	3c44      	ldr r1,[r7]
 1ce:	0433      	sub r0,r1,0
 1d0:	1000      	beq 1f0 <___call_exitprocs+0x130>
 1d2:	1ce2      	mov r0,r7
 1d4:	2c5c 1000 	str r1,[r35]
 1d8:	095f 1002 	jalr r34
 1dc:	ec4c 1000 	ldr r7,[r35,+0x0]
 1e0:	3c33      	sub r1,r7,0
 1e2:	9610      	bne 10e <___call_exitprocs+0x4e>
 1e4:	d7e0      	b 192 <___call_exitprocs+0xd2>
 1e6:	1c44      	ldr r0,[r7]
 1e8:	7cef 8002 	mov r35,r7
 1ec:	e0e2      	mov r7,r0
 1ee:	f9e0      	b 1e0 <___call_exitprocs+0x120>
 1f0:	0003      	mov r0,0x0
 1f2:	fbe0 	b 1e8 <___call_exitprocs+0x128>

Disassembly of section NEW_LIB_WR:

000001f8 <__impure_ptr>:
 1f8:	0200      	beq 1fc <__impure_ptr+0x4>
 1fa:	0000      	beq 1fa <__impure_ptr+0x2>
 1fc:	0000      	beq 1fc <__impure_ptr+0x4>
	...

00000200 <_impure_data>:
 200:	0000      	beq 200 <_impure_data>
 202:	0000      	beq 202 <_impure_data+0x2>
 204:	04f8 0000 	bl 20c <_impure_data+0xc>
 208:	0568 0000 	bgt 212 <_impure_data+0x12>
 20c:	05d8 0000 	bblte 216 <_impure_data+0x16>
	...
 234:	0d40      	blteu 24e <_impure_data+0x4e>
	...
 2ae:	0000      	beq 2ae <_impure_data+0xae>
 2b0:	0001      	ldrb r0,[r0,r0]
 2b2:	0000      	beq 2b2 <_impure_data+0xb2>
 2b4:	0000      	beq 2b4 <_impure_data+0xb4>
 2b6:	0000      	beq 2b6 <_impure_data+0xb6>
 2b8:	330e      	asr r1,r4,0x18
 2ba:	abcd 1234 	*unknown*
 2be:	e66d deec 	*unknown*
 2c2:	0005      	ldrb r0,[r0],r0
 2c4:	000b 0000 	*unknown*
	...

Disassembly of section GNU_C_BUILTIN_LIB_RO:

00000648 <__exit>:
 648:	0fe2      	trap 0x3
 64a:	ffe8 ffff 	b 648 <__exit>

Disassembly of section .init:

0000064e <init>:
 64e:	d65c 2700 	str lr,[sp],-0x4
 652:	1c8b 0072 	mov r0,0x7e4
 656:	000b 1002 	movt r0,0x0
 65a:	0152      	jalr r0
 65c:	140b 00c2 	mov r0,0xca0
 660:	000b 1002 	movt r0,0x0
 664:	0152      	jalr r0
 666:	d64c 2400 	ldr lr,[sp,+0x4]
 66a:	b41b 2402 	add sp,sp,16
 66e:	194f 0402 	rts

Disassembly of section .text:

00000680 <_epiphany_start>:
 680:	be0b 27f2 	mov sp,0x7ff0
 684:	a00b 3002 	movt sp,0x0
 688:	600b 2002 	mov fp,0x0
 68c:	090b 00d2 	mov r0,0xd48
 690:	000b 1002 	movt r0,0x0
 694:	2a0b 00d2 	mov r1,0xd50
 698:	200b 1002 	movt r1,0x0
 69c:	4003      	mov r2,0x0
 69e:	6003      	mov r3,0x0
 6a0:	40fc 0200 	strd r2,[r0],+0x1
 6a4:	a43a      	sub r5,r1,r0
 6a6:	fd10      	bne 6a0 <_epiphany_start+0x20>
 6a8:	5f0b 0012 	mov r2,0x1f8
 6ac:	400b 1002 	movt r2,0x0
 6b0:	4844      	ldr r2,[r2]
 6b2:	3c8b 00c2 	mov r1,0xce4
 6b6:	200b 1002 	movt r1,0x0
 6ba:	0a1b 0029 	add r0,r2,332
 6be:	00dc 0100 	str r0,[r0,-0x1]
 6c2:	0023      	mov r0,0x1
 6c4:	097c 0005 	strd r0,[r2,+0x2a]
 6c8:	49cb 0062 	mov r2,0x64e
 6cc:	400b 1002 	movt r2,0x0
 6d0:	0952      	jalr r2
 6d2:	1feb 0ff2 	mov r0,0xffff
 6d6:	050f 0402 	movts imask,r0
 6da:	1d0b 0062 	mov r0,0x6e8
 6de:	000b 1002 	movt r0,0x0
 6e2:	010f 0402 	movts iret,r0
 6e6:	01d2      	rti

000006e8 <RDS>:
 6e8:	0003      	mov r0,0x0
 6ea:	2003      	mov r1,0x0
 6ec:	4003      	mov r2,0x0
 6ee:	640b 0082 	mov r3,0x820
 6f2:	600b 1002 	movt r3,0x0
 6f6:	0d52      	jalr r3
 6f8:	700b 0002 	mov r3,0x80
 6fc:	600b 1002 	movt r3,0x0
 700:	0d52      	jalr r3
 702:	01b2      	idle
	...

00000710 <_deregister_tm_clones>:
 710:	080b 00d2 	mov r0,0xd40
 714:	286b 00d2 	mov r1,0xd43
 718:	000b 1002 	movt r0,0x0
 71c:	200b 1002 	movt r1,0x0
 720:	243a      	sub r1,r1,r0
 722:	473b 0000 	sub r2,r1,6
 726:	0320      	bgtu 72c <_deregister_tm_clones+0x1c>
 728:	194f 0402 	rts
 72c:	200b 0002 	mov r1,0x0
 730:	200b 1002 	movt r1,0x0
 734:	4433      	sub r2,r1,0
 736:	f900      	beq 728 <_deregister_tm_clones+0x18>
 738:	0542      	jr r1
 73a:	01a2      	nop

0000073c <_register_tm_clones>:
 73c:	080b 00d2 	mov r0,0xd40
 740:	280b 00d2 	mov r1,0xd40
 744:	000b 1002 	movt r0,0x0
 748:	200b 1002 	movt r1,0x0
 74c:	243a      	sub r1,r1,r0
 74e:	244e      	asr r1,r1,0x2
 750:	47e6      	lsr r2,r1,0x1f
 752:	289a      	add r1,r2,r1
 754:	242e      	asr r1,r1,0x1
 756:	4433      	sub r2,r1,0
 758:	0310      	bne 75e <_register_tm_clones+0x22>
 75a:	194f 0402 	rts
 75e:	400b 0002 	mov r2,0x0
 762:	400b 1002 	movt r2,0x0
 766:	6833      	sub r3,r2,0
 768:	f900      	beq 75a <_register_tm_clones+0x1e>
 76a:	0942      	jr r2

0000076c <___do_global_dtors_aux>:
 76c:	95fc 0700 	strd r4,[sp],-0x3
 770:	d57c 0400 	strd r6,[sp,+0x2]
 774:	e90b 00d2 	mov r7,0xd48
 778:	e00b 1002 	movt r7,0x0
 77c:	1c04      	ldrb r0,[r7]
 77e:	75dc 2400 	str fp,[sp,+0x3]
 782:	d55c 2400 	str lr,[sp,+0x2]
 786:	2033      	sub r1,r0,0
 788:	2210      	bne 7cc <___do_global_dtors_aux+0x60>
 78a:	c10b 00d2 	mov r6,0xd08
 78e:	a18b 00d2 	mov r5,0xd0c
 792:	c00b 1002 	movt r6,0x0
 796:	898b 00d2 	mov r4,0xd4c
 79a:	a00b 1002 	movt r5,0x0
 79e:	b73a      	sub r5,r5,r6
 7a0:	800b 1002 	movt r4,0x0
 7a4:	b44e      	asr r5,r5,0x2
 7a6:	1044      	ldr r0,[r4]
 7a8:	b793      	add r5,r5,-1
 7aa:	22ba      	sub r1,r0,r5
 7ac:	0930      	bgteu 7be <___do_global_dtors_aux+0x52>
 7ae:	0093      	add r0,r0,1
 7b0:	2056      	lsl r1,r0,0x2
 7b2:	38c1      	ldr r1,[r6,r1]
 7b4:	1054      	str r0,[r4]
 7b6:	0552      	jalr r1
 7b8:	1044      	ldr r0,[r4]
 7ba:	22ba      	sub r1,r0,r5
 7bc:	f950      	bltu 7ae <___do_global_dtors_aux+0x42>
 7be:	020b 0072 	mov r0,0x710
 7c2:	000b 1002 	movt r0,0x0
 7c6:	0152      	jalr r0
 7c8:	0023      	mov r0,0x1
 7ca:	1c14      	strb r0,[r7]
 7cc:	d56c 0400 	ldrd r6,[sp,+0x2]
 7d0:	75cc 2400 	ldr fp,[sp,+0x3]
 7d4:	d54c 2400 	ldr lr,[sp,+0x2]
 7d8:	b41b 2403 	add sp,sp,24
 7dc:	946c 0400 	ldrd r4,[sp,+0x0]
 7e0:	194f 0402 	rts

000007e4 <_frame_dummy>:
 7e4:	020b 00d2 	mov r0,0xd10
 7e8:	000b 1002 	movt r0,0x0
 7ec:	2044      	ldr r1,[r0]
 7ee:	755c 2700 	str fp,[sp],-0x2
 7f2:	d5dc 2400 	str lr,[sp,+0x3]
 7f6:	4433      	sub r2,r1,0
 7f8:	0800      	beq 808 <__HEAP_SIZE_FOR_CORE_+0x8>
 7fa:	200b 0002 	mov r1,0x0
 7fe:	200b 1002 	movt r1,0x0
 802:	4433      	sub r2,r1,0
 804:	0200      	beq 808 <__HEAP_SIZE_FOR_CORE_+0x8>
 806:	0552      	jalr r1
 808:	078b 0072 	mov r0,0x73c
 80c:	d5cc 2400 	ldr lr,[sp,+0x3]
 810:	754c 2400 	ldr fp,[sp,+0x2]
 814:	000b 1002 	movt r0,0x0
 818:	b41b 2401 	add sp,sp,8
 81c:	0142      	jr r0
 81e:	01a2      	nop

00000820 <_main>:
 820:	745c 2701 	str fp,[sp],-0x8
 824:	d4dc 2401 	str lr,[sp,+0x9]
 828:	74ef 2402 	mov fp,sp
 82c:	020b 0032 	mov r0,0x310
 830:	01eb 1812 	movt r0,0x810f
 834:	0fdc 0400 	str r0,[fp,+0x7]
 838:	020b 0322 	mov r0,0x3210
 83c:	0a8b 1762 	movt r0,0x7654
 840:	330b 0ba2 	mov r1,0xba98
 844:	3b8b 1fe2 	movt r1,0xfedc
 848:	0d7c 0400 	strd r0,[fp,+0x2]
 84c:	2c1b 0402 	add r1,fp,16
 850:	0fcc 0400 	ldr r0,[fp,+0x7]
 854:	4103      	mov r2,0x8
 856:	6e0b 0082 	mov r3,0x870
 85a:	600b 1002 	movt r3,0x0
 85e:	0d52      	jalr r3
 860:	d4cc 2401 	ldr lr,[sp,+0x9]
 864:	744c 2401 	ldr fp,[sp,+0x8]
 868:	b41b 2404 	add sp,sp,32
 86c:	194f 0402 	rts

00000870 <_e_dma_copy>:
 870:	765c 2701 	str fp,[sp],-0xc
 874:	d6dc 2401 	str lr,[sp,+0xd]
 878:	74ef 2402 	mov fp,sp
 87c:	0edc 0400 	str r0,[fp,+0x5]
 880:	2e5c 0400 	str r1,[fp,+0x4]
 884:	4ddc 0400 	str r2,[fp,+0x3]
 888:	0023      	mov r0,0x1
 88a:	0d5c 0401 	str r0,[fp,+0xa]
 88e:	2ecc 0400 	ldr r1,[fp,+0x5]
 892:	0e4c 0400 	ldr r0,[fp,+0x4]
 896:	247a      	orr r1,r1,r0
 898:	0dcc 0400 	ldr r0,[fp,+0x3]
 89c:	247a      	orr r1,r1,r0
 89e:	00e3      	mov r0,0x7
 8a0:	045a      	and r0,r1,r0
 8a2:	0cdc 0401 	str r0,[fp,+0x9]
 8a6:	0ccc 0401 	ldr r0,[fp,+0x9]
 8aa:	2056      	lsl r1,r0,0x2
 8ac:	040b 00d2 	mov r0,0xd20
 8b0:	000b 1002 	movt r0,0x0
 8b4:	041a      	add r0,r1,r0
 8b6:	2044      	ldr r1,[r0]
 8b8:	0063      	mov r0,0x3
 8ba:	047a      	orr r0,r1,r0
 8bc:	0ddc 0401 	str r0,[fp,+0xb]
 8c0:	2ecc 0400 	ldr r1,[fp,+0x5]
 8c4:	000b 0002 	mov r0,0x0
 8c8:	1e0b 1ff2 	movt r0,0xfff0
 8cc:	045a      	and r0,r1,r0
 8ce:	2033      	sub r1,r0,0
 8d0:	0810      	bne 8e0 <_e_dma_copy+0x70>
 8d2:	2dcc 0401 	ldr r1,[fp,+0xb]
 8d6:	000b 0042 	mov r0,0x400
 8da:	047a      	orr r0,r1,r0
 8dc:	0ddc 0401 	str r0,[fp,+0xb]
 8e0:	0ccc 0401 	ldr r0,[fp,+0x9]
 8e4:	2056      	lsl r1,r0,0x2
 8e6:	040b 00d2 	mov r0,0xd20
 8ea:	000b 1002 	movt r0,0x0
 8ee:	041a      	add r0,r1,r0
 8f0:	0044      	ldr r0,[r0]
 8f2:	00a6      	lsr r0,r0,0x5
 8f4:	0c5c 0401 	str r0,[fp,+0x8]
 8f8:	0c4c 0401 	ldr r0,[fp,+0x8]
 8fc:	202b 0002 	mov r1,0x1
 900:	202b 1002 	movt r1,0x1
 904:	042a      	lsl r0,r1,r0
 906:	0fdc 0400 	str r0,[fp,+0x7]
 90a:	0d0b 0002 	mov r0,0x68
 90e:	000b 1002 	movt r0,0x0
 912:	2dcc 0401 	ldr r1,[fp,+0xb]
 916:	2054      	str r1,[r0]
 918:	0d8b 0002 	mov r0,0x6c
 91c:	000b 1002 	movt r0,0x0
 920:	2fcc 0400 	ldr r1,[fp,+0x7]
 924:	2054      	str r1,[r0]
 926:	0c4c 0401 	ldr r0,[fp,+0x8]
 92a:	2dcc 0400 	ldr r1,[fp,+0x3]
 92e:	244a      	lsr r1,r1,r0
 930:	000b 0002 	mov r0,0x0
 934:	002b 1002 	movt r0,0x1
 938:	247a      	orr r1,r1,r0
 93a:	0e0b 0002 	mov r0,0x70
 93e:	000b 1002 	movt r0,0x0
 942:	2054      	str r1,[r0]
 944:	0e8b 0002 	mov r0,0x74
 948:	000b 1002 	movt r0,0x0
 94c:	2fcc 0400 	ldr r1,[fp,+0x7]
 950:	2054      	str r1,[r0]
 952:	0f0b 0002 	mov r0,0x78
 956:	000b 1002 	movt r0,0x0
 95a:	2e4c 0400 	ldr r1,[fp,+0x4]
 95e:	2054      	str r1,[r0]
 960:	0f8b 0002 	mov r0,0x7c
 964:	000b 1002 	movt r0,0x0
 968:	2ecc 0400 	ldr r1,[fp,+0x5]
 96c:	2054      	str r1,[r0]
 96e:	0d0b 0002 	mov r0,0x68
 972:	000b 1002 	movt r0,0x0
 976:	2d4c 0401 	ldr r1,[fp,+0xa]
 97a:	560b 0092 	mov r2,0x9b0
 97e:	400b 1002 	movt r2,0x0
 982:	0952      	jalr r2
 984:	0f5c 0400 	str r0,[fp,+0x6]
 988:	01a2      	nop
 98a:	0d4c 0401 	ldr r0,[fp,+0xa]
 98e:	330b 00b2 	mov r1,0xb98
 992:	200b 1002 	movt r1,0x0
 996:	0552      	jalr r1
 998:	2033      	sub r1,r0,0
 99a:	f810      	bne 98a <_e_dma_copy+0x11a>
 99c:	0f4c 0400 	ldr r0,[fp,+0x6]
 9a0:	d6cc 2401 	ldr lr,[sp,+0xd]
 9a4:	764c 2401 	ldr fp,[sp,+0xc]
 9a8:	b41b 2406 	add sp,sp,48
 9ac:	194f 0402 	rts

000009b0 <_e_dma_start>:
 9b0:	745c 2701 	str fp,[sp],-0x8
 9b4:	d4dc 2401 	str lr,[sp,+0x9]
 9b8:	74ef 2402 	mov fp,sp
 9bc:	0edc 0400 	str r0,[fp,+0x5]
 9c0:	2e5c 0400 	str r1,[fp,+0x4]
 9c4:	1feb 0ff2 	mov r0,0xffff
 9c8:	1feb 1ff2 	movt r0,0xffff
 9cc:	0fdc 0400 	str r0,[fp,+0x7]
 9d0:	2e4c 0400 	ldr r1,[fp,+0x4]
 9d4:	0023      	mov r0,0x1
 9d6:	047a      	orr r0,r1,r0
 9d8:	20b3      	sub r1,r0,1
 9da:	0600      	beq 9e6 <_e_dma_start+0x36>
 9dc:	1feb 0ff2 	mov r0,0xffff
 9e0:	1feb 1ff2 	movt r0,0xffff
 9e4:	39e0      	b a56 <_e_dma_start+0xa6>
 9e6:	01a2      	nop
 9e8:	0e4c 0400 	ldr r0,[fp,+0x4]
 9ec:	330b 00b2 	mov r1,0xb98
 9f0:	200b 1002 	movt r1,0x0
 9f4:	0552      	jalr r1
 9f6:	2033      	sub r1,r0,0
 9f8:	f810      	bne 9e8 <_e_dma_start+0x38>
 9fa:	0ecc 0400 	ldr r0,[fp,+0x5]
 9fe:	2216      	lsl r1,r0,0x10
 a00:	0103      	mov r0,0x8
 a02:	047a      	orr r0,r1,r0
 a04:	0f5c 0400 	str r0,[fp,+0x6]
 a08:	0e4c 0400 	ldr r0,[fp,+0x4]
 a0c:	2033      	sub r1,r0,0
 a0e:	0400      	beq a16 <_e_dma_start+0x66>
 a10:	20b3      	sub r1,r0,1
 a12:	1100      	beq a34 <_e_dma_start+0x84>
 a14:	1fe0      	b a52 <_e_dma_start+0xa2>
 a16:	000b 0052 	mov r0,0x500
 a1a:	01eb 1002 	movt r0,0xf
 a1e:	2f4c 0400 	ldr r1,[fp,+0x6]
 a22:	4d0b 00a2 	mov r2,0xa68
 a26:	400b 1002 	movt r2,0x0
 a2a:	0952      	jalr r2
 a2c:	0003      	mov r0,0x0
 a2e:	0fdc 0400 	str r0,[fp,+0x7]
 a32:	10e0      	b a52 <_e_dma_start+0xa2>
 a34:	040b 0052 	mov r0,0x520
 a38:	01eb 1002 	movt r0,0xf
 a3c:	2f4c 0400 	ldr r1,[fp,+0x6]
 a40:	4d0b 00a2 	mov r2,0xa68
 a44:	400b 1002 	movt r2,0x0
 a48:	0952      	jalr r2
 a4a:	0003      	mov r0,0x0
 a4c:	0fdc 0400 	str r0,[fp,+0x7]
 a50:	01a2      	nop
 a52:	0fcc 0400 	ldr r0,[fp,+0x7]
 a56:	d4cc 2401 	ldr lr,[sp,+0x9]
 a5a:	744c 2401 	ldr fp,[sp,+0x8]
 a5e:	b41b 2404 	add sp,sp,32
 a62:	194f 0402 	rts
 a66:	01a2      	nop

00000a68 <_e_reg_write>:
 a68:	745c 2701 	str fp,[sp],-0x8
 a6c:	d4dc 2401 	str lr,[sp,+0x9]
 a70:	74ef 2402 	mov fp,sp
 a74:	0edc 0400 	str r0,[fp,+0x5]
 a78:	2e5c 0400 	str r1,[fp,+0x4]
 a7c:	0e4c 0400 	ldr r0,[fp,+0x4]
 a80:	0f5c 0400 	str r0,[fp,+0x6]
 a84:	0ecc 0400 	ldr r0,[fp,+0x5]
 a88:	200b 0042 	mov r1,0x400
 a8c:	21eb 1002 	movt r1,0xf
 a90:	40ba      	sub r2,r0,r1
 a92:	0800      	beq aa2 <_e_reg_write+0x3a>
 a94:	208b 0042 	mov r1,0x404
 a98:	21eb 1002 	movt r1,0xf
 a9c:	40ba      	sub r2,r0,r1
 a9e:	0600      	beq aaa <_e_reg_write+0x42>
 aa0:	09e0      	b ab2 <_e_reg_write+0x4a>
 aa2:	0f4c 0400 	ldr r0,[fp,+0x6]
 aa6:	0102      	movts config,r0
 aa8:	1ee0      	b ae4 <_e_reg_write+0x7c>
 aaa:	0f4c 0400 	ldr r0,[fp,+0x6]
 aae:	0502      	movts status,r0
 ab0:	1ae0      	b ae4 <_e_reg_write+0x7c>
 ab2:	088b 0002 	mov r0,0x44
 ab6:	000b 1002 	movt r0,0x0
 aba:	0044      	ldr r0,[r0]
 abc:	290b 0002 	mov r1,0x48
 ac0:	200b 1002 	movt r1,0x0
 ac4:	2444      	ldr r1,[r1]
 ac6:	4ecc 0400 	ldr r2,[fp,+0x5]
 aca:	7f0b 00a2 	mov r3,0xaf8
 ace:	600b 1002 	movt r3,0x0
 ad2:	0d52      	jalr r3
 ad4:	0fdc 0400 	str r0,[fp,+0x7]
 ad8:	0fcc 0400 	ldr r0,[fp,+0x7]
 adc:	2e4c 0400 	ldr r1,[fp,+0x4]
 ae0:	2054      	str r1,[r0]
 ae2:	01a2      	nop
 ae4:	01a2      	nop
 ae6:	d4cc 2401 	ldr lr,[sp,+0x9]
 aea:	744c 2401 	ldr fp,[sp,+0x8]
 aee:	b41b 2404 	add sp,sp,32
 af2:	194f 0402 	rts
 af6:	01a2      	nop

00000af8 <_e_get_global_address>:
 af8:	745c 2701 	str fp,[sp],-0x8
 afc:	d4dc 2401 	str lr,[sp,+0x9]
 b00:	74ef 2402 	mov fp,sp
 b04:	0edc 0400 	str r0,[fp,+0x5]
 b08:	2e5c 0400 	str r1,[fp,+0x4]
 b0c:	4ddc 0400 	str r2,[fp,+0x3]
 b10:	2dcc 0400 	ldr r1,[fp,+0x3]
 b14:	000b 0002 	mov r0,0x0
 b18:	1e0b 1ff2 	movt r0,0xfff0
 b1c:	045a      	and r0,r1,r0
 b1e:	2033      	sub r1,r0,0
 b20:	0800      	beq b30 <_e_get_global_address+0x38>
 b22:	0dcc 0400 	ldr r0,[fp,+0x3]
 b26:	0f5c 0400 	str r0,[fp,+0x6]
 b2a:	0f4c 0400 	ldr r0,[fp,+0x6]
 b2e:	2de0      	b b88 <_e_get_global_address+0x90>
 b30:	0ecc 0400 	ldr r0,[fp,+0x5]
 b34:	23b3      	sub r1,r0,-1
 b36:	0500      	beq b40 <_e_get_global_address+0x48>
 b38:	0e4c 0400 	ldr r0,[fp,+0x4]
 b3c:	23b3      	sub r1,r0,-1
 b3e:	0910      	bne b50 <_e_get_global_address+0x58>
 b40:	110b 00c2 	mov r0,0xc88
 b44:	000b 1002 	movt r0,0x0
 b48:	0152      	jalr r0
 b4a:	0fdc 0400 	str r0,[fp,+0x7]
 b4e:	0fe0      	b b6c <_e_get_global_address+0x74>
 b50:	0ecc 0400 	ldr r0,[fp,+0x5]
 b54:	20d6      	lsl r1,r0,0x6
 b56:	0e4c 0400 	ldr r0,[fp,+0x4]
 b5a:	241a      	add r1,r1,r0
 b5c:	060b 0002 	mov r0,0x30
 b60:	000b 1002 	movt r0,0x0
 b64:	0044      	ldr r0,[r0]
 b66:	041a      	add r0,r1,r0
 b68:	0fdc 0400 	str r0,[fp,+0x7]
 b6c:	0dcc 0400 	ldr r0,[fp,+0x3]
 b70:	0f5c 0400 	str r0,[fp,+0x6]
 b74:	0fcc 0400 	ldr r0,[fp,+0x7]
 b78:	0296      	lsl r0,r0,0x14
 b7a:	2f4c 0400 	ldr r1,[fp,+0x6]
 b7e:	047a      	orr r0,r1,r0
 b80:	0f5c 0400 	str r0,[fp,+0x6]
 b84:	0f4c 0400 	ldr r0,[fp,+0x6]
 b88:	d4cc 2401 	ldr lr,[sp,+0x9]
 b8c:	744c 2401 	ldr fp,[sp,+0x8]
 b90:	b41b 2404 	add sp,sp,32
 b94:	194f 0402 	rts

00000b98 <_e_dma_busy>:
 b98:	765c 2700 	str fp,[sp],-0x4
 b9c:	d6dc 2400 	str lr,[sp,+0x5]
 ba0:	74ef 2402 	mov fp,sp
 ba4:	0ddc 0400 	str r0,[fp,+0x3]
 ba8:	0dcc 0400 	ldr r0,[fp,+0x3]
 bac:	2033      	sub r1,r0,0
 bae:	0400      	beq bb6 <_e_dma_busy+0x1e>
 bb0:	20b3      	sub r1,r0,1
 bb2:	0f00      	beq bd0 <_e_dma_busy+0x38>
 bb4:	1be0      	b bea <_e_dma_busy+0x52>
 bb6:	038b 0052 	mov r0,0x51c
 bba:	01eb 1002 	movt r0,0xf
 bbe:	208b 00c2 	mov r1,0xc04
 bc2:	200b 1002 	movt r1,0x0
 bc6:	0552      	jalr r1
 bc8:	20e2      	mov r1,r0
 bca:	01e3      	mov r0,0xf
 bcc:	045a      	and r0,r1,r0
 bce:	12e0      	b bf2 <_e_dma_busy+0x5a>
 bd0:	078b 0052 	mov r0,0x53c
 bd4:	01eb 1002 	movt r0,0xf
 bd8:	208b 00c2 	mov r1,0xc04
 bdc:	200b 1002 	movt r1,0x0
 be0:	0552      	jalr r1
 be2:	20e2      	mov r1,r0
 be4:	01e3      	mov r0,0xf
 be6:	045a      	and r0,r1,r0
 be8:	05e0      	b bf2 <_e_dma_busy+0x5a>
 bea:	1feb 0ff2 	mov r0,0xffff
 bee:	1feb 1ff2 	movt r0,0xffff
 bf2:	d6cc 2400 	ldr lr,[sp,+0x5]
 bf6:	764c 2400 	ldr fp,[sp,+0x4]
 bfa:	b41b 2402 	add sp,sp,16
 bfe:	194f 0402 	rts
 c02:	01a2      	nop

00000c04 <_e_reg_read>:
 c04:	775c 2700 	str fp,[sp],-0x6
 c08:	d7dc 2400 	str lr,[sp,+0x7]
 c0c:	74ef 2402 	mov fp,sp
 c10:	0ddc 0400 	str r0,[fp,+0x3]
 c14:	0dcc 0400 	ldr r0,[fp,+0x3]
 c18:	200b 0042 	mov r1,0x400
 c1c:	21eb 1002 	movt r1,0xf
 c20:	40ba      	sub r2,r0,r1
 c22:	0800      	beq c32 <_e_reg_read+0x2e>
 c24:	208b 0042 	mov r1,0x404
 c28:	21eb 1002 	movt r1,0xf
 c2c:	40ba      	sub r2,r0,r1
 c2e:	0800      	beq c3e <_e_reg_read+0x3a>
 c30:	0de0      	b c4a <_e_reg_read+0x46>
 c32:	0112      	movfs r0,config
 c34:	0e5c 0400 	str r0,[fp,+0x4]
 c38:	0e4c 0400 	ldr r0,[fp,+0x4]
 c3c:	1de0      	b c76 <_e_reg_read+0x72>
 c3e:	0512      	movfs r0,status
 c40:	0e5c 0400 	str r0,[fp,+0x4]
 c44:	0e4c 0400 	ldr r0,[fp,+0x4]
 c48:	17e0      	b c76 <_e_reg_read+0x72>
 c4a:	088b 0002 	mov r0,0x44
 c4e:	000b 1002 	movt r0,0x0
 c52:	0044      	ldr r0,[r0]
 c54:	290b 0002 	mov r1,0x48
 c58:	200b 1002 	movt r1,0x0
 c5c:	2444      	ldr r1,[r1]
 c5e:	4dcc 0400 	ldr r2,[fp,+0x3]
 c62:	7f0b 00a2 	mov r3,0xaf8
 c66:	600b 1002 	movt r3,0x0
 c6a:	0d52      	jalr r3
 c6c:	0edc 0400 	str r0,[fp,+0x5]
 c70:	0ecc 0400 	ldr r0,[fp,+0x5]
 c74:	0044      	ldr r0,[r0]
 c76:	d7cc 2400 	ldr lr,[sp,+0x7]
 c7a:	774c 2400 	ldr fp,[sp,+0x6]
 c7e:	b41b 2403 	add sp,sp,24
 c82:	194f 0402 	rts
 c86:	01a2      	nop

00000c88 <_e_get_coreid>:
 c88:	765c 2700 	str fp,[sp],-0x4
 c8c:	74ef 2402 	mov fp,sp
 c90:	051f 0032 	movfs r0,coreid
 c94:	764c 2400 	ldr fp,[sp,+0x4]
 c98:	b41b 2402 	add sp,sp,16
 c9c:	194f 0402 	rts

00000ca0 <___do_global_ctors_aux>:
 ca0:	008b 00d2 	mov r0,0xd04
 ca4:	000b 1002 	movt r0,0x0
 ca8:	00cc 0100 	ldr r0,[r0,-0x1]
 cac:	965c 0700 	str r4,[sp],-0x4
 cb0:	76dc 2400 	str fp,[sp,+0x5]
 cb4:	9f8b 00c2 	mov r4,0xcfc
 cb8:	d5dc 2400 	str lr,[sp,+0x3]
 cbc:	23b3      	sub r1,r0,-1
 cbe:	800b 1002 	movt r4,0x0
 cc2:	0600      	beq cce <___do_global_ctors_aux+0x2e>
 cc4:	0152      	jalr r0
 cc6:	10cc 0300 	ldr r0,[r4],-0x1
 cca:	23b3      	sub r1,r0,-1
 ccc:	fc10      	bne cc4 <___do_global_ctors_aux+0x24>
 cce:	76cc 2400 	ldr fp,[sp,+0x5]
 cd2:	964c 0400 	ldr r4,[sp,+0x4]
 cd6:	d5cc 2400 	ldr lr,[sp,+0x3]
 cda:	b41b 2402 	add sp,sp,16
 cde:	194f 0402 	rts
 ce2:	01a2 	nop

Disassembly of section .fini:

00000ce4 <fini>:
 ce4:	d65c 2700 	str lr,[sp],-0x4
 ce8:	0d8b 0072 	mov r0,0x76c
 cec:	000b 1002 	movt r0,0x0
 cf0:	0152      	jalr r0
 cf2:	d64c 2400 	ldr lr,[sp,+0x4]
 cf6:	b41b 2402 	add sp,sp,16
 cfa:	194f 0402 	rts

Disassembly of section .ctors:

00000d00 <___CTOR_LIST__>:
 d00:	ffff ffff 	*unknown*

00000d04 <___CTOR_END__>:
 d04:	0000      	beq d04 <___CTOR_END__>
	...

Disassembly of section .dtors:

00000d08 <___DTOR_LIST__>:
 d08:	ffff ffff 	*unknown*

00000d0c <___DTOR_END__>:
 d0c:	0000      	beq d0c <___DTOR_END__>
	...

Disassembly of section .jcr:

00000d10 <___JCR_END__>:
 d10:	0000      	beq d10 <___JCR_END__>
	...

Disassembly of section .data:

00000d18 <___dso_handle>:
	...

00000d20 <_dma_data_size>:
 d20:	0060      	bgt d20 <_dma_data_size>
 d22:	0000      	beq d22 <_dma_data_size+0x2>
 d24:	0000      	beq d24 <_dma_data_size+0x4>
 d26:	0000      	beq d26 <_dma_data_size+0x6>
 d28:	0020      	bgtu d28 <_dma_data_size+0x8>
 d2a:	0000      	beq d2a <_dma_data_size+0xa>
 d2c:	0000      	beq d2c <_dma_data_size+0xc>
 d2e:	0000      	beq d2e <_dma_data_size+0xe>
 d30:	0040      	blteu d30 <_dma_data_size+0x10>
 d32:	0000      	beq d32 <_dma_data_size+0x12>
 d34:	0000      	beq d34 <_dma_data_size+0x14>
 d36:	0000      	beq d36 <_dma_data_size+0x16>
 d38:	0020      	bgtu d38 <_dma_data_size+0x18>
 d3a:	0000      	beq d3a <_dma_data_size+0x1a>
 d3c:	0000      	beq d3c <_dma_data_size+0x1c>
	...

Disassembly of section .rodata:

00000d40 <.rodata>:
 d40:	0043      	mov r0,0x2
 d42:	0000      	beq d42 <___TMC_END__+0x2>
 d44:	0000      	beq d44 <___TMC_END__+0x4>
	...

Disassembly of section .bss:

00000d48 <__bss_start>:
 d48:	0000      	beq d48 <__bss_start>
	...

00000d4c <_dtor_idx.2745>:
 d4c:	0000      	beq d4c <_dtor_idx.2745>
	...

Disassembly of section .comment:

00000000 <.comment>:
   0:	4347      	fmsub r2,r0,r6
   2:	3a43      	mov r1,0xd2
   4:	2820      	bgtu 54 <_e_emem_config+0x4>
   6:	7045      	ldr r3,[r4],r0
   8:	7069 6168 	*unknown*
   c:	796e      	asr r3,r6,0xb
   e:	7420      	bgtu f6 <___call_exitprocs+0x36>
  10:	6f6f 636c 	*unknown*
  14:	6168 6e69 	bgt dcd2d6 <__PROG_SIZE_FOR_CORE_+0xccd2d6>
  18:	3220      	bgtu 7c <__dma_copy_descriptor_+0x14>
  1a:	3130      	bgteu 7c <__dma_copy_descriptor_+0x14>
  1c:	2e35      	strh r1,[r3],r4
  1e:	2931      	strh r1,[r2,r2]
  20:	3420      	bgtu 88 <_exit+0x8>
  22:	382e      	asr r1,r6,0x1
  24:	322e      	asr r1,r4,0x11
  26:	3220      	bgtu 8a <_exit+0xa>
  28:	3130      	bgteu 8a <_exit+0xa>
  2a:	3033      	sub r1,r4,0
  2c:	3237      	fmadd r1,r4,r4
  2e:	2039 7028 	*unknown*
  32:	6572 6572 	*unknown*
  36:	656c 7361 	ldrd r27,[r33],-0x30a
  3a:	2965 	ldrd r1,[r2],r2
	...

Disassembly of section .debug_aranges:

00000000 <.debug_aranges>:
   0:	001c 0000 	strb r0,[r0]
   4:	0002      	moveq r0,r0
   6:	0000      	beq 6 <__NUM_COLS_IN_CHIP_+0x2>
   8:	0000      	beq 8 <__CORE_COL_>
   a:	0004      	ldrb r0,[r0]
   c:	0000      	beq c <__CORE_COL_+0x4>
   e:	0000      	beq e <__CORE_COL_+0x6>
  10:	0870      	bgte 20 <__CORE_ROW_>
  12:	0000      	beq 12 <__CORE_COL_+0xa>
  14:	0140      	blteu 16 <__CORE_COL_+0xe>
	...
  1e:	0000      	beq 1e <__CORE_COL_+0x16>
  20:	001c 0000 	strb r0,[r0]
  24:	0002      	moveq r0,r0
  26:	0201      	ldrb r0,[r0,r4]
  28:	0000      	beq 28 <_e_group_config>
  2a:	0004      	ldrb r0,[r0]
  2c:	0000      	beq 2c <_e_group_config+0x4>
  2e:	0000      	beq 2e <_e_group_config+0x6>
  30:	09b0      	bbne 42 <_e_group_config+0x1a>
  32:	0000      	beq 32 <_e_group_config+0xa>
  34:	00b6      	lsl r0,r0,0x5
	...
  3e:	0000      	beq 3e <_e_group_config+0x16>
  40:	001c 0000 	strb r0,[r0]
  44:	0002      	moveq r0,r0
  46:	04e7      	fix r0,r1
  48:	0000      	beq 48 <_e_group_config+0x20>
  4a:	0004      	ldrb r0,[r0]
  4c:	0000      	beq 4c <_e_group_config+0x24>
  4e:	0000      	beq 4e <_e_group_config+0x26>
  50:	0a68 0000 	bgt 64 <.normal_start+0xc>
  54:	008e      	asr r0,r0,0x4
	...
  5e:	0000      	beq 5e <.normal_start+0x6>
  60:	0014      	strb r0,[r0]
  62:	0000      	beq 62 <.normal_start+0xa>
  64:	0002      	moveq r0,r0
  66:	07c4      	ldr r0,[r1,0x7]
  68:	0000      	beq 68 <__dma_copy_descriptor_>
  6a:	0004      	ldrb r0,[r0]
	...
  78:	001c 0000 	strb r0,[r0]
  7c:	0002      	moveq r0,r0
  7e:	093c 0000 	strh r0,[r2,+0x2]
  82:	0004      	ldrb r0,[r0]
  84:	0000      	beq 84 <_exit+0x4>
  86:	0000      	beq 86 <_exit+0x6>
  88:	0af8 0000 	bl 9c <_exit+0x1c>
  8c:	00a0      	bbeq 8c <_exit+0xc>
	...
  96:	0000      	beq 96 <_exit+0x16>
  98:	001c 0000 	strb r0,[r0]
  9c:	0002      	moveq r0,r0
  9e:	0add 0000 	str r0,[r2],+r5
  a2:	0004      	ldrb r0,[r0]
  a4:	0000      	beq a4 <_exit+0x24>
  a6:	0000      	beq a6 <_exit+0x26>
  a8:	0b98 0000 	blte be <__global_impure_ptr+0x2>
  ac:	006a      	asr r0,r0,r0
	...
  b6:	0000      	beq b6 <_exit+0x36>
  b8:	001c 0000 	strb r0,[r0]
  bc:	0002      	moveq r0,r0
  be:	0ca8 0000 	bbeq d6 <___call_exitprocs+0x16>
  c2:	0004      	ldrb r0,[r0]
  c4:	0000      	beq c4 <___call_exitprocs+0x4>
  c6:	0000      	beq c6 <___call_exitprocs+0x6>
  c8:	0c04      	ldrb r0,[r3]
  ca:	0000      	beq ca <___call_exitprocs+0xa>
  cc:	0082      	movlt r0,r0
	...
  d6:	0000      	beq d6 <___call_exitprocs+0x16>
  d8:	001c 0000 	strb r0,[r0]
  dc:	0002      	moveq r0,r0
  de:	0f7b 0000 	*unknown*
  e2:	0004      	ldrb r0,[r0]
  e4:	0000      	beq e4 <___call_exitprocs+0x24>
  e6:	0000      	beq e6 <___call_exitprocs+0x26>
  e8:	0c88 0000 	blt 100 <___call_exitprocs+0x40>
  ec:	0018 0000 	bne ec <___call_exitprocs+0x2c>
	...
  f8:	001c 0000 	strb r0,[r0]
  fc:	0002      	moveq r0,r0
  fe:	0fd6      	lsl r0,r3,0x1e
 100:	0000      	beq 100 <___call_exitprocs+0x40>
 102:	0004      	ldrb r0,[r0]
 104:	0000      	beq 104 <___call_exitprocs+0x44>
 106:	0000      	beq 106 <___call_exitprocs+0x46>
 108:	0080      	blt 108 <___call_exitprocs+0x48>
 10a:	0000      	beq 10a <___call_exitprocs+0x4a>
 10c:	003a      	sub r0,r0,r0
	...
 116:	0000      	beq 116 <___call_exitprocs+0x56>
 118:	0014      	strb r0,[r0]
 11a:	0000      	beq 11a <___call_exitprocs+0x5a>
 11c:	0002      	moveq r0,r0
 11e:	1880      	blt 14e <___call_exitprocs+0x8e>
 120:	0000      	beq 120 <___call_exitprocs+0x60>
 122:	0004      	ldrb r0,[r0]
	...
 130:	001c 0000 	strb r0,[r0]
 134:	0002      	moveq r0,r0
 136:	2105      	ldrb r1,[r0],r2
 138:	0000      	beq 138 <___call_exitprocs+0x78>
 13a:	0004      	ldrb r0,[r0]
 13c:	0000      	beq 13c <___call_exitprocs+0x7c>
 13e:	0000      	beq 13e <___call_exitprocs+0x7e>
 140:	00c0      	bblt 140 <___call_exitprocs+0x80>
 142:	0000      	beq 142 <___call_exitprocs+0x82>
 144:	0134      	strh r0,[r0,0x2]
	...

Disassembly of section .debug_info:

00000000 <.debug_info>:
       0:	01fd 0000 	strd r0,[r0],+r3
       4:	0004      	ldrb r0,[r0]
       6:	0000      	beq 6 <__NUM_COLS_IN_CHIP_+0x2>
       8:	0000      	beq 8 <__CORE_COL_>
       a:	0104      	ldrb r0,[r0,0x2]
       c:	017b 0000 	*unknown*
      10:	6101      	ldrb r3,[r0,r2]
      12:	0000      	beq 12 <__CORE_COL_+0xa>
      14:	fc00      	beq c <__CORE_COL_+0x4>
      16:	0000      	beq 16 <__CORE_COL_+0xe>
      18:	7000      	beq f8 <___call_exitprocs+0x38>
      1a:	0008 4000 	beq 80001a <__PROG_SIZE_FOR_CORE_+0x70001a>
      1e:	0001      	ldrb r0,[r0,r0]
      20:	0000      	beq 20 <__CORE_ROW_>
      22:	0000      	beq 22 <__CORE_ROW_+0x2>
      24:	0200      	beq 28 <_e_group_config>
      26:	0504      	ldrb r0,[r1,0x2]
      28:	0794      	strb r0,[r1,0x7]
      2a:	0000      	beq 2a <_e_group_config+0x2>
      2c:	0603      	mov r0,0x30
      2e:	0000      	beq 2e <_e_group_config+0x6>
      30:	0300      	beq 36 <_e_group_config+0xe>
      32:	37d4      	str r1,[r5,0x7]
      34:	0000      	beq 34 <_e_group_config+0xc>
      36:	0200      	beq 3a <_e_group_config+0x12>
      38:	0704      	ldrb r0,[r1,0x6]
      3a:	074e      	asr r0,r1,0x1a
      3c:	0000      	beq 3c <_e_group_config+0x14>
      3e:	0402      	moveq r0,r1
      40:	5307      	fadd r2,r4,r6
      42:	0007      	fadd r0,r0,r0
      44:	0400      	beq 4c <_e_group_config+0x24>
      46:	0204      	ldrb r0,[r0,0x4]
      48:	ac25      	ldrh r5,[r3],r0
      4a:	0000      	beq 4a <_e_group_config+0x22>
      4c:	0500      	beq 56 <_e_emem_config+0x6>
      4e:	0049 0000 	ldr r0,[r0,+r0]
      52:	0501      	ldrb r0,[r1,r2]
      54:	001b 0000 	add r0,r0,0
      58:	0502      	movts status,r0
      5a:	0163      	mov r0,0xb
      5c:	0000      	beq 5c <.normal_start+0x4>
      5e:	0504      	ldrb r0,[r1,0x2]
      60:	01ff 0000 	*unknown*
      64:	0508 016f 	beq 2de6e <__stack_start_+0x25e7e>
      68:	0000      	beq 68 <__dma_copy_descriptor_>
      6a:	0510      	bne 74 <__dma_copy_descriptor_+0xc>
      6c:	0056      	lsl r0,r0,0x2
      6e:	0000      	beq 6e <__dma_copy_descriptor_+0x6>
      70:	0500      	beq 7a <__dma_copy_descriptor_+0x12>
      72:	0137      	fmadd r0,r0,r2
      74:	0000      	beq 74 <__dma_copy_descriptor_+0xc>
      76:	0520      	bgtu 80 <_exit>
      78:	003e 0000 	*unknown*
      7c:	00c0      	bblt 7c <__dma_copy_descriptor_+0x14>
      7e:	4c05      	ldrb r2,[r3],r0
      80:	0001      	ldrb r0,[r0,r0]
      82:	e000      	beq 42 <_e_group_config+0x1a>
      84:	0500      	beq 8e <_exit+0xe>
      86:	00db 0000 	*unknown*
      8a:	0880      	blt 9a <_exit+0x1a>
      8c:	bf05      	ldrb r5,[r7],r6
      8e:	0000      	beq 8e <_exit+0xe>
      90:	8000      	beq ffffff90 <__SHARED_DRAM_+0x71ffff90>
      92:	0520      	bgtu 9c <_exit+0x1c>
      94:	00e9 0000 	ldrd r0,[r0,+r1]
      98:	c080      	blt 18 <__CORE_COL_+0x10>
      9a:	0500      	beq a4 <_exit+0x24>
      9c:	00ab 0000 	*unknown*
      a0:	8080      	blt ffffffa0 <__SHARED_DRAM_+0x71ffffa0>
      a2:	0501      	ldrb r0,[r1,r2]
      a4:	022d 0000 	ldrh r0,[r0],+r4
      a8:	8080      	blt ffffffa8 <__SHARED_DRAM_+0x71ffffa8>
      aa:	0002      	moveq r0,r0
      ac:	0404      	ldrb r0,[r1]
      ae:	3702 00c1 	*unknown*
      b2:	0000      	beq b2 <_exit+0x32>
      b4:	8e05      	ldrb r4,[r3],r4
      b6:	0000      	beq b6 <_exit+0x36>
      b8:	0000      	beq b8 <_exit+0x38>
      ba:	9605      	ldrb r4,[r5],r4
      bc:	0000      	beq bc <__global_impure_ptr>
      be:	0100      	beq c0 <___call_exitprocs>
      c0:	0300      	beq c6 <___call_exitprocs+0x6>
      c2:	0158 0000 	bltu c4 <___call_exitprocs+0x4>
      c6:	3a02 00ac 	*unknown*
      ca:	0000      	beq ca <___call_exitprocs+0xa>
      cc:	1806      	lsr r0,r6,0x0
      ce:	3c02      	moveq r1,r7
      d0:	011d 0000 	strb r0,[r0],+r2
      d4:	3407      	fadd r1,r5,r0
      d6:	0006      	lsr r0,r0,0x0
      d8:	0200      	beq dc <___call_exitprocs+0x1c>
      da:	3e3e 0000 	*unknown*
      de:	0000      	beq de <___call_exitprocs+0x1e>
      e0:	9e07      	fadd r4,r7,r4
      e2:	0000      	beq e2 <___call_exitprocs+0x22>
      e4:	0200      	beq e8 <___call_exitprocs+0x28>
      e6:	3e3f 0000 	*unknown*
      ea:	0400      	beq f2 <___call_exitprocs+0x32>
      ec:	2d07      	fadd r1,r3,r2
      ee:	000a      	eor r0,r0,r0
      f0:	0200      	beq f4 <___call_exitprocs+0x34>
      f2:	3e40      	blteu 16e <___call_exitprocs+0xae>
      f4:	0000      	beq f4 <___call_exitprocs+0x34>
      f6:	0800      	beq 106 <___call_exitprocs+0x46>
      f8:	2007      	fadd r1,r0,r0
      fa:	0002      	moveq r0,r0
      fc:	0200      	beq 100 <___call_exitprocs+0x40>
      fe:	3e41      	ldr r1,[r7,r4]
     100:	0000      	beq 100 <___call_exitprocs+0x40>
     102:	0c00      	beq 11a <___call_exitprocs+0x5a>
     104:	7207      	fadd r3,r4,r4
     106:	0000      	beq 106 <___call_exitprocs+0x46>
     108:	0200      	beq 10c <___call_exitprocs+0x4c>
     10a:	1d42      	jr r7
     10c:	0001      	ldrb r0,[r0,r0]
     10e:	1000      	beq 12e <___call_exitprocs+0x6e>
     110:	d207      	fadd r6,r4,r4
     112:	0000      	beq 112 <___call_exitprocs+0x52>
     114:	0200      	beq 118 <___call_exitprocs+0x58>
     116:	1d43      	mov r0,0xea
     118:	0001      	ldrb r0,[r0,r0]
     11a:	1400      	beq 142 <___call_exitprocs+0x82>
     11c:	0800      	beq 12c <___call_exitprocs+0x6c>
     11e:	0304      	ldrb r0,[r0,0x6]
     120:	0213      	add r0,r0,-4
     122:	0000      	beq 122 <___call_exitprocs+0x62>
     124:	4402      	moveq r2,r1
     126:	00cc 0000 	ldr r0,[r0,+0x1]
     12a:	7b09 0000 	ldrb r3,[r6,+r6]
     12e:	0100      	beq 130 <___call_exitprocs+0x70>
     130:	c02f 0001 	*unknown*
     134:	7000      	beq 214 <_impure_data+0x14>
     136:	0008 4000 	beq 800136 <__PROG_SIZE_FOR_CORE_+0x700136>
     13a:	0001      	ldrb r0,[r0,r0]
     13c:	0100      	beq 13e <___call_exitprocs+0x7e>
     13e:	c09c 0001 	strb r6,[r0,+0x9]
     142:	0a00      	beq 156 <___call_exitprocs+0x96>
     144:	7364      	ldrd r3,[r4,0x6]
     146:	0074      	strd r0,[r0]
     148:	2f01      	ldrb r1,[r3,r6]
     14a:	011d 0000 	strb r0,[r0],+r2
     14e:	9102      	movts iab,r4
     150:	0a5c 7273 	str r24,[r34],+0x39c
     154:	0063      	mov r0,0x3
     156:	2f01      	ldrb r1,[r3,r6]
     158:	011d 0000 	strb r0,[r0],+r2
     15c:	9102      	movts iab,r4
     15e:	0a58 006e 	bltu dd72 <__stack_start_+0x5d82>
     162:	2f01      	ldrb r1,[r3,r6]
     164:	002c 0000 	ldrh r0,[r0,+0x0]
     168:	9102      	movts iab,r4
     16a:	0b54      	str r0,[r2,0x6]
     16c:	0132 0000 	*unknown*
     170:	3101      	ldrb r1,[r4,r2]
     172:	00c1      	ldr r0,[r0,r1]
     174:	0000      	beq 174 <___call_exitprocs+0xb4>
     176:	9102      	movts iab,r4
     178:	0b70      	bgte 18e <___call_exitprocs+0xce>
     17a:	020d 0000 	ldrb r0,[r0],+r4
     17e:	3201      	ldrb r1,[r4,r4]
     180:	003e 0000 	*unknown*
     184:	9102      	movts iab,r4
     186:	0b6c 0000 	ldrd r0,[r2,+0x6]
     18a:	0000      	beq 18a <___call_exitprocs+0xca>
     18c:	3301      	ldrb r1,[r4,r6]
     18e:	003e 0000 	*unknown*
     192:	9102      	movts iab,r4
     194:	0b68 00a4 	bgt 149aa <__stack_start_+0xc9ba>
     198:	0000      	beq 198 <___call_exitprocs+0xd8>
     19a:	3401      	ldrb r1,[r5,r0]
     19c:	003e 0000 	*unknown*
     1a0:	9102      	movts iab,r4
     1a2:	0b64      	ldrd r0,[r2,0x6]
     1a4:	0634      	strh r0,[r1,0x4]
     1a6:	0000      	beq 1a6 <___call_exitprocs+0xe6>
     1a8:	3501      	ldrb r1,[r5,r2]
     1aa:	003e 0000 	*unknown*
     1ae:	9102      	movts iab,r4
     1b0:	0b74      	strd r0,[r2,0x6]
     1b2:	0086      	lsr r0,r0,0x4
     1b4:	0000      	beq 1b4 <___call_exitprocs+0xf4>
     1b6:	3601      	ldrb r1,[r5,r4]
     1b8:	01c0      	bblt 1ba <___call_exitprocs+0xfa>
     1ba:	0000      	beq 1ba <___call_exitprocs+0xfa>
     1bc:	9102      	movts iab,r4
     1be:	0060      	bgt 1be <___call_exitprocs+0xfe>
     1c0:	040c 6905 	ldrb r24,[r17,-0x28]
     1c4:	746e      	asr r3,r5,0x3
     1c6:	0d00      	beq 1e0 <___call_exitprocs+0x120>
     1c8:	0028 0000 	bgtu 1c8 <___call_exitprocs+0x108>
     1cc:	1e01      	ldrb r0,[r7,r4]
     1ce:	011f 0000 	*unknown*
     1d2:	0305      	ldrb r0,[r0],r6
     1d4:	0068 0000 	bgt 1d4 <___call_exitprocs+0x114>
     1d8:	3e0e      	asr r1,r7,0x10
     1da:	0000      	beq 1da <___call_exitprocs+0x11a>
     1dc:	e800      	beq 1ac <___call_exitprocs+0xec>
     1de:	0001      	ldrb r0,[r0,r0]
     1e0:	0f00      	beq 1fe <__impure_ptr+0x6>
     1e2:	01e8 0000 	b 1e4 <___call_exitprocs+0x124>
     1e6:	0007      	fadd r0,r0,r0
     1e8:	0402      	moveq r0,r1
     1ea:	4307      	fadd r2,r0,r6
     1ec:	0001      	ldrb r0,[r0,r0]
     1ee:	0d00      	beq 208 <_impure_data+0x8>
     1f0:	000d 0000 	ldrb r0,[r0],+r0
     1f4:	2001      	ldrb r1,[r0,r0]
     1f6:	01d8 0000 	bblte 1f8 <__impure_ptr>
     1fa:	0305      	ldrb r0,[r0],r6
     1fc:	0d20      	bgtu 216 <_impure_data+0x16>
     1fe:	0000      	beq 1fe <__impure_ptr+0x6>
     200:	e200      	beq 1c4 <___call_exitprocs+0x104>
     202:	0002      	moveq r0,r0
     204:	0400      	beq 20c <_impure_data+0xc>
     206:	cd00      	beq 1a0 <___call_exitprocs+0xe0>
     208:	0000      	beq 208 <_impure_data+0x8>
     20a:	0400      	beq 212 <_impure_data+0x12>
     20c:	7b01      	ldrb r3,[r6,r6]
     20e:	0001      	ldrb r0,[r0,r0]
     210:	0100      	beq 212 <_impure_data+0x12>
     212:	029d 0000 	strb r0,[r0],+r5
     216:	00fc 0000 	strd r0,[r0,+0x1]
     21a:	09b0      	bbne 22c <_impure_data+0x2c>
     21c:	0000      	beq 21c <_impure_data+0x1c>
     21e:	00b6      	lsl r0,r0,0x5
     220:	0000      	beq 220 <_impure_data+0x20>
     222:	015c 0000 	str r0,[r0,+0x2]
     226:	0402      	moveq r0,r1
     228:	2b02 0040 	*unknown*
     22c:	0000      	beq 22c <_impure_data+0x2c>
     22e:	ba03      	mov r5,0xd0
     230:	0004      	ldrb r0,[r0]
     232:	0000      	beq 232 <_impure_data+0x32>
     234:	5303      	mov r2,0x98
     236:	0002      	moveq r0,r0
     238:	7f00      	beq 336 <_impure_data+0x136>
     23a:	4903      	mov r2,0x48
     23c:	0003      	mov r0,0x0
     23e:	7e00      	beq 33a <_impure_data+0x13a>
     240:	0400      	beq 248 <_impure_data+0x48>
     242:	02bc 0000 	strh r0,[r0,+0x5]
     246:	2f02 0025 	*unknown*
     24a:	0000      	beq 24a <_impure_data+0x4a>
     24c:	0402      	moveq r0,r1
     24e:	6603      	mov r3,0x30
     250:	018c 0000 	ldrb r0,[r0,+0x3]
     254:	a703      	mov r5,0x38
     256:	0004      	ldrb r0,[r0]
     258:	8000      	beq 158 <___call_exitprocs+0x98>
     25a:	3c80      	blt 2d2 <_impure_data+0xd2>
     25c:	bf03      	mov r5,0xf8
     25e:	0004      	ldrb r0,[r0]
     260:	8000      	beq 160 <___call_exitprocs+0xa0>
     262:	3c88 3c03 	blt 7808da <__PROG_SIZE_FOR_CORE_+0x6808da>
     266:	0003      	mov r0,0x0
     268:	8400      	beq 170 <___call_exitprocs+0xb0>
     26a:	3c88 6203 	blt c408e2 <__PROG_SIZE_FOR_CORE_+0xb408e2>
     26e:	0002      	moveq r0,r0
     270:	8800      	beq 180 <___call_exitprocs+0xc0>
     272:	3c88 9003 	blt ff2008ea <__SHARED_DRAM_+0x712008ea>
     276:	0003      	mov r0,0x0
     278:	8c00      	beq 190 <___call_exitprocs+0xd0>
     27a:	3c88 4103 	blt 8208f2 <__PROG_SIZE_FOR_CORE_+0x7208f2>
     27e:	0002      	moveq r0,r0
     280:	9400      	beq 1a8 <___call_exitprocs+0xe8>
     282:	3c88 5903 	blt b208fa <__PROG_SIZE_FOR_CORE_+0xa208fa>
     286:	0002      	moveq r0,r0
     288:	9800      	beq 1b8 <___call_exitprocs+0xf8>
     28a:	3c88 4a03 	blt 940902 <__PROG_SIZE_FOR_CORE_+0x840902>
     28e:	0002      	moveq r0,r0
     290:	9c00      	beq 1c8 <___call_exitprocs+0x108>
     292:	3c88 7303 	blt e6090a <__PROG_SIZE_FOR_CORE_+0xd6090a>
     296:	0003      	mov r0,0x0
     298:	a000      	beq 1d8 <___call_exitprocs+0x118>
     29a:	3c88 8203 	blt ff040912 <__SHARED_DRAM_+0x71040912>
     29e:	0002      	moveq r0,r0
     2a0:	a400      	beq 1e8 <___call_exitprocs+0x128>
     2a2:	3c88 7703 	blt ee091a <__PROG_SIZE_FOR_CORE_+0xde091a>
     2a6:	0002      	moveq r0,r0
     2a8:	a800      	beq 1f8 <__impure_ptr>
     2aa:	3c88 c803 	blt ff900922 <__SHARED_DRAM_+0x71900922>
     2ae:	0003      	mov r0,0x0
     2b0:	ac00      	beq 208 <_impure_data+0x8>
     2b2:	3c88 0d03 	blt 1a092a <__PROG_SIZE_FOR_CORE_+0xa092a>
     2b6:	0003      	mov r0,0x0
     2b8:	b000      	beq 218 <_impure_data+0x18>
     2ba:	3c88 6b03 	blt d60932 <__PROG_SIZE_FOR_CORE_+0xc60932>
     2be:	0002      	moveq r0,r0
     2c0:	b400      	beq 228 <_impure_data+0x28>
     2c2:	3c88 1c03 	blt 38093a <__PROG_SIZE_FOR_CORE_+0x28093a>
     2c6:	0004      	ldrb r0,[r0]
     2c8:	b800      	beq 238 <_impure_data+0x38>
     2ca:	3c88 2a03 	blt 540942 <__PROG_SIZE_FOR_CORE_+0x440942>
     2ce:	0004      	ldrb r0,[r0]
     2d0:	bc00      	beq 248 <_impure_data+0x48>
     2d2:	3c88 6503 	blt ca094a <__PROG_SIZE_FOR_CORE_+0xba094a>
     2d6:	0004      	ldrb r0,[r0]
     2d8:	c000      	beq 258 <_impure_data+0x58>
     2da:	3c88 8e03 	blt ff1c0952 <__SHARED_DRAM_+0x711c0952>
     2de:	0002      	moveq r0,r0
     2e0:	c800      	beq 270 <_impure_data+0x70>
     2e2:	3c88 2b03 	blt 56095a <__PROG_SIZE_FOR_CORE_+0x46095a>
     2e6:	0003      	mov r0,0x0
     2e8:	8000      	beq 1e8 <___call_exitprocs+0x128>
     2ea:	3c8a      	eor r1,r7,r1
     2ec:	7303      	mov r3,0x98
     2ee:	0004      	ldrb r0,[r0]
     2f0:	8400      	beq 1f8 <__impure_ptr>
     2f2:	3c8a      	eor r1,r7,r1
     2f4:	cc03      	mov r6,0x60
     2f6:	0002      	moveq r0,r0
     2f8:	8800      	beq 208 <_impure_data+0x8>
     2fa:	3c8a      	eor r1,r7,r1
     2fc:	5003      	mov r2,0x80
     2fe:	0003      	mov r0,0x0
     300:	8c00      	beq 218 <_impure_data+0x18>
     302:	3c8a      	eor r1,r7,r1
     304:	8403      	mov r4,0x20
     306:	0004      	ldrb r0,[r0]
     308:	9000      	beq 228 <_impure_data+0x28>
     30a:	3c8a      	eor r1,r7,r1
     30c:	a203      	mov r5,0x10
     30e:	0003      	mov r0,0x0
     310:	9400      	beq 238 <_impure_data+0x38>
     312:	3c8a      	eor r1,r7,r1
     314:	b503      	mov r5,0xa8
     316:	0003      	mov r0,0x0
     318:	9800      	beq 248 <_impure_data+0x48>
     31a:	3c8a      	eor r1,r7,r1
     31c:	5403      	mov r2,0xa0
     31e:	0004      	ldrb r0,[r0]
     320:	9c00      	beq 258 <_impure_data+0x58>
     322:	3c8a      	eor r1,r7,r1
     324:	9603      	mov r4,0xb0
     326:	0004      	ldrb r0,[r0]
     328:	a000      	beq 268 <_impure_data+0x68>
     32a:	3c8a      	eor r1,r7,r1
     32c:	6203      	mov r3,0x10
     32e:	0003      	mov r0,0x0
     330:	a400      	beq 278 <_impure_data+0x78>
     332:	3c8a      	eor r1,r7,r1
     334:	0c03      	mov r0,0x60
     336:	0004      	ldrb r0,[r0]
     338:	a800      	beq 288 <_impure_data+0x88>
     33a:	3c8a      	eor r1,r7,r1
     33c:	dc03      	mov r6,0xe0
     33e:	0002      	moveq r0,r0
     340:	ac00      	beq 298 <_impure_data+0x98>
     342:	3c8a      	eor r1,r7,r1
     344:	7e03      	mov r3,0xf0
     346:	0003      	mov r0,0x0
     348:	b000      	beq 2a8 <_impure_data+0xa8>
     34a:	3c8a      	eor r1,r7,r1
     34c:	d503      	mov r6,0xa8
     34e:	0003      	mov r0,0x0
     350:	b400      	beq 2b8 <_impure_data+0xb8>
     352:	3c8a      	eor r1,r7,r1
     354:	e803      	mov r7,0x40
     356:	0003      	mov r0,0x0
     358:	b800      	beq 2c8 <_impure_data+0xc8>
     35a:	3c8a      	eor r1,r7,r1
     35c:	1a03      	mov r0,0xd0
     35e:	0003      	mov r0,0x0
     360:	bc00      	beq 2d8 <_impure_data+0xd8>
     362:	3c8a      	eor r1,r7,r1
     364:	4403      	mov r2,0x20
     366:	0004      	ldrb r0,[r0]
     368:	8400      	beq 270 <_impure_data+0x70>
     36a:	3c8c fb03 	ldrb r57,[r55],-0x19
     36e:	0003      	mov r0,0x0
     370:	8800      	beq 280 <_impure_data+0x80>
     372:	3c8c ff03 	ldrb r57,[r63],-0x19
     376:	0002      	moveq r0,r0
     378:	8000      	beq 278 <_impure_data+0x78>
     37a:	3c8e      	asr r1,r7,0x4
     37c:	af03      	mov r5,0x78
     37e:	0002      	moveq r0,r0
     380:	8400      	beq 288 <_impure_data+0x88>
     382:	3c8e      	asr r1,r7,0x4
     384:	ee03      	mov r7,0x70
     386:	0002      	moveq r0,r0
     388:	8c00      	beq 2a0 <_impure_data+0xa0>
     38a:	3c8e      	asr r1,r7,0x4
     38c:	0500      	beq 396 <_impure_data+0x196>
     38e:	0504      	ldrb r0,[r1,0x2]
     390:	0794      	strb r0,[r1,0x7]
     392:	0000      	beq 392 <_impure_data+0x192>
     394:	0405      	ldrb r0,[r1],r0
     396:	4e07      	fadd r2,r3,r4
     398:	0007      	fadd r0,r0,r0
     39a:	0500      	beq 3a4 <_impure_data+0x1a4>
     39c:	0704      	ldrb r0,[r1,0x6]
     39e:	0753 0000 	*unknown*
     3a2:	0402      	moveq r0,r1
     3a4:	2504      	ldrb r1,[r1,0x2]
     3a6:	0208 0000 	beq 3aa <_impure_data+0x1aa>
     3aa:	4903      	mov r2,0x48
     3ac:	0000      	beq 3ac <_impure_data+0x1ac>
     3ae:	0100      	beq 3b0 <_impure_data+0x1b0>
     3b0:	1b03      	mov r0,0xd8
     3b2:	0000      	beq 3b2 <_impure_data+0x1b2>
     3b4:	0200      	beq 3b8 <_impure_data+0x1b8>
     3b6:	6303      	mov r3,0x18
     3b8:	0001      	ldrb r0,[r0,r0]
     3ba:	0400      	beq 3c2 <_impure_data+0x1c2>
     3bc:	ff03      	mov r7,0xf8
     3be:	0001      	ldrb r0,[r0,r0]
     3c0:	0800      	beq 3d0 <_impure_data+0x1d0>
     3c2:	6f03      	mov r3,0x78
     3c4:	0001      	ldrb r0,[r0,r0]
     3c6:	1000      	beq 3e6 <_impure_data+0x1e6>
     3c8:	5603      	mov r2,0xb0
     3ca:	0000      	beq 3ca <_impure_data+0x1ca>
     3cc:	0000      	beq 3cc <_impure_data+0x1cc>
     3ce:	3703      	mov r1,0xb8
     3d0:	0001      	ldrb r0,[r0,r0]
     3d2:	2000      	beq 412 <_impure_data+0x212>
     3d4:	3e03      	mov r1,0xf0
     3d6:	0000      	beq 3d6 <_impure_data+0x1d6>
     3d8:	c000      	beq 358 <_impure_data+0x158>
     3da:	0300      	beq 3e0 <_impure_data+0x1e0>
     3dc:	014c 0000 	ldr r0,[r0,+0x2]
     3e0:	00e0      	b 3e0 <_impure_data+0x1e0>
     3e2:	db03      	mov r6,0xd8
     3e4:	0000      	beq 3e4 <_impure_data+0x1e4>
     3e6:	8000      	beq 2e6 <_impure_data+0xe6>
     3e8:	0308 00bf 	beq 181ee <__stack_start_+0x101fe>
     3ec:	0000      	beq 3ec <_impure_data+0x1ec>
     3ee:	2080      	blt 42e <_impure_data+0x22e>
     3f0:	e903      	mov r7,0x48
     3f2:	0000      	beq 3f2 <_impure_data+0x1f2>
     3f4:	8000      	beq 2f4 <_impure_data+0xf4>
     3f6:	00c0      	bblt 3f6 <_impure_data+0x1f6>
     3f8:	ab03      	mov r5,0x58
     3fa:	0000      	beq 3fa <_impure_data+0x1fa>
     3fc:	8000      	beq 2fc <_impure_data+0xfc>
     3fe:	0180      	blt 400 <_impure_data+0x200>
     400:	2d03      	mov r1,0x68
     402:	0002      	moveq r0,r0
     404:	8000      	beq 304 <_impure_data+0x104>
     406:	0280      	blt 40a <_impure_data+0x20a>
     408:	0200      	beq 40c <_impure_data+0x20c>
     40a:	0404      	ldrb r0,[r1]
     40c:	1d37      	fmadd r0,r7,r2
     40e:	0002      	moveq r0,r0
     410:	0300      	beq 416 <_impure_data+0x216>
     412:	008e      	asr r0,r0,0x4
     414:	0000      	beq 414 <_impure_data+0x214>
     416:	0300      	beq 41c <_impure_data+0x21c>
     418:	0096      	lsl r0,r0,0x4
     41a:	0000      	beq 41a <_impure_data+0x21a>
     41c:	0001      	ldrb r0,[r0,r0]
     41e:	5804      	ldrb r2,[r6]
     420:	0001      	ldrb r0,[r0,r0]
     422:	0400      	beq 42a <_impure_data+0x22a>
     424:	083a      	sub r0,r2,r0
     426:	0002      	moveq r0,r0
     428:	0600      	beq 434 <_impure_data+0x234>
     42a:	0418 793c 	bne f27c32 <__PROG_SIZE_FOR_CORE_+0xe27c32>
     42e:	0002      	moveq r0,r0
     430:	0700      	beq 43e <_impure_data+0x23e>
     432:	0634      	strh r0,[r1,0x4]
     434:	0000      	beq 434 <_impure_data+0x234>
     436:	3e04      	ldrb r1,[r7,0x4]
     438:	019a      	add r0,r0,r3
     43a:	0000      	beq 43a <_impure_data+0x23a>
     43c:	0700      	beq 44a <_impure_data+0x24a>
     43e:	009e 0000 	*unknown*
     442:	3f04      	ldrb r1,[r7,0x6]
     444:	019a      	add r0,r0,r3
     446:	0000      	beq 446 <_impure_data+0x246>
     448:	0704      	ldrb r0,[r1,0x6]
     44a:	0a2d 0000 	ldrh r0,[r2],+r4
     44e:	4004      	ldrb r2,[r0]
     450:	019a      	add r0,r0,r3
     452:	0000      	beq 452 <_impure_data+0x252>
     454:	0708 0220 	beq 44462 <__stack_start_+0x3c472>
     458:	0000      	beq 458 <_impure_data+0x258>
     45a:	4104      	ldrb r2,[r0,0x2]
     45c:	019a      	add r0,r0,r3
     45e:	0000      	beq 45e <_impure_data+0x25e>
     460:	070c 0072 	ldrb r0,[r1,+0x396]
     464:	0000      	beq 464 <_impure_data+0x264>
     466:	4204      	ldrb r2,[r0,0x4]
     468:	0279 0000 	strd r0,[r0,+r4]
     46c:	0710      	bne 47a <_impure_data+0x27a>
     46e:	00d2      	movblte r0,r0
     470:	0000      	beq 470 <_impure_data+0x270>
     472:	4304      	ldrb r2,[r0,0x6]
     474:	0279 0000 	strd r0,[r0,+r4]
     478:	0014      	strb r0,[r0]
     47a:	0408 1304 	beq 260c82 <__PROG_SIZE_FOR_CORE_+0x160c82>
     47e:	0002      	moveq r0,r0
     480:	0400      	beq 488 <_impure_data+0x288>
     482:	2844      	ldr r1,[r2]
     484:	0002      	moveq r0,r0
     486:	0900      	beq 498 <_impure_data+0x298>
     488:	0438 0000 	bgteu 490 <_impure_data+0x290>
     48c:	1e01      	ldrb r0,[r7,r4]
     48e:	02d8 0000 	bblte 492 <_impure_data+0x292>
     492:	09b0      	bbne 4a4 <_impure_data+0x2a4>
     494:	0000      	beq 494 <_impure_data+0x294>
     496:	00b6      	lsl r0,r0,0x5
     498:	0000      	beq 498 <_impure_data+0x298>
     49a:	9c01      	ldrb r4,[r7,r0]
     49c:	02d8 0000 	bblte 4a0 <_impure_data+0x2a0>
     4a0:	cc0a      	eor r6,r3,r0
     4a2:	0004      	ldrb r0,[r0]
     4a4:	0100      	beq 4a6 <_impure_data+0x2a6>
     4a6:	df1e 0002 	*unknown*
     4aa:	0200      	beq 4ae <_impure_data+0x2ae>
     4ac:	6c91      	strb r3,[r3,r1]
     4ae:	320a      	eor r1,r4,r4
     4b0:	0001      	ldrb r0,[r0,r0]
     4b2:	0100      	beq 4b4 <_impure_data+0x2b4>
     4b4:	1d1e 0002 	*unknown*
     4b8:	0200      	beq 4bc <_impure_data+0x2bc>
     4ba:	6891      	strb r3,[r2,r1]
     4bc:	3e0b 0004 	*unknown*
     4c0:	0100      	beq 4c2 <_impure_data+0x2c2>
     4c2:	9a20      	bgtu 3f6 <_impure_data+0x1f6>
     4c4:	0001      	ldrb r0,[r0,r0]
     4c6:	0200      	beq 4ca <_impure_data+0x2ca>
     4c8:	7091      	strb r3,[r4,r1]
     4ca:	860b 0000 	*unknown*
     4ce:	0100      	beq 4d0 <_impure_data+0x2d0>
     4d0:	4021      	ldrh r2,[r0,r0]
     4d2:	0000      	beq 4d2 <_impure_data+0x2d2>
     4d4:	0200      	beq 4d8 <_impure_data+0x2d8>
     4d6:	7491      	strb r3,[r5,r1]
     4d8:	0c00      	beq 4f0 <_impure_data+0x2f0>
     4da:	0504      	ldrb r0,[r1,0x2]
     4dc:	6e69 0074 	*unknown*
     4e0:	040d 027b 	*unknown*
     4e4:	0000      	beq 4e4 <_impure_data+0x2e4>
     4e6:	d900      	beq 498 <_impure_data+0x298>
     4e8:	0002      	moveq r0,r0
     4ea:	0400      	beq 4f2 <_impure_data+0x2f2>
     4ec:	8000      	beq 3ec <_impure_data+0x1ec>
     4ee:	0001      	ldrb r0,[r0,r0]
     4f0:	0400      	beq 4f8 <_impure_data+0x2f8>
     4f2:	7b01      	ldrb r3,[r6,r6]
     4f4:	0001      	ldrb r0,[r0,r0]
     4f6:	0100      	beq 4f8 <_impure_data+0x2f8>
     4f8:	058b 0000 	*unknown*
     4fc:	00fc 0000 	strd r0,[r0,+0x1]
     500:	0a68 0000 	bgt 514 <_impure_data+0x314>
     504:	008e      	asr r0,r0,0x4
     506:	0000      	beq 506 <_impure_data+0x306>
     508:	024f 0000 	*unknown*
     50c:	0402      	moveq r0,r1
     50e:	6602 0166 	*unknown*
     512:	0000      	beq 512 <_impure_data+0x312>
     514:	a703      	mov r5,0x38
     516:	0004      	ldrb r0,[r0]
     518:	8000      	beq 418 <_impure_data+0x218>
     51a:	3c80      	blt 592 <_impure_data+0x392>
     51c:	bf03      	mov r5,0xf8
     51e:	0004      	ldrb r0,[r0]
     520:	8000      	beq 420 <_impure_data+0x220>
     522:	3c88 3c03 	blt 780b9a <__PROG_SIZE_FOR_CORE_+0x680b9a>
     526:	0003      	mov r0,0x0
     528:	8400      	beq 430 <_impure_data+0x230>
     52a:	3c88 6203 	blt c40ba2 <__PROG_SIZE_FOR_CORE_+0xb40ba2>
     52e:	0002      	moveq r0,r0
     530:	8800      	beq 440 <_impure_data+0x240>
     532:	3c88 9003 	blt ff200baa <__SHARED_DRAM_+0x71200baa>
     536:	0003      	mov r0,0x0
     538:	8c00      	beq 450 <_impure_data+0x250>
     53a:	3c88 4103 	blt 820bb2 <__PROG_SIZE_FOR_CORE_+0x720bb2>
     53e:	0002      	moveq r0,r0
     540:	9400      	beq 468 <_impure_data+0x268>
     542:	3c88 5903 	blt b20bba <__PROG_SIZE_FOR_CORE_+0xa20bba>
     546:	0002      	moveq r0,r0
     548:	9800      	beq 478 <_impure_data+0x278>
     54a:	3c88 4a03 	blt 940bc2 <__PROG_SIZE_FOR_CORE_+0x840bc2>
     54e:	0002      	moveq r0,r0
     550:	9c00      	beq 488 <_impure_data+0x288>
     552:	3c88 7303 	blt e60bca <__PROG_SIZE_FOR_CORE_+0xd60bca>
     556:	0003      	mov r0,0x0
     558:	a000      	beq 498 <_impure_data+0x298>
     55a:	3c88 8203 	blt ff040bd2 <__SHARED_DRAM_+0x71040bd2>
     55e:	0002      	moveq r0,r0
     560:	a400      	beq 4a8 <_impure_data+0x2a8>
     562:	3c88 7703 	blt ee0bda <__PROG_SIZE_FOR_CORE_+0xde0bda>
     566:	0002      	moveq r0,r0
     568:	a800      	beq 4b8 <_impure_data+0x2b8>
     56a:	3c88 c803 	blt ff900be2 <__SHARED_DRAM_+0x71900be2>
     56e:	0003      	mov r0,0x0
     570:	ac00      	beq 4c8 <_impure_data+0x2c8>
     572:	3c88 0d03 	blt 1a0bea <__PROG_SIZE_FOR_CORE_+0xa0bea>
     576:	0003      	mov r0,0x0
     578:	b000      	beq 4d8 <_impure_data+0x2d8>
     57a:	3c88 6b03 	blt d60bf2 <__PROG_SIZE_FOR_CORE_+0xc60bf2>
     57e:	0002      	moveq r0,r0
     580:	b400      	beq 4e8 <_impure_data+0x2e8>
     582:	3c88 1c03 	blt 380bfa <__PROG_SIZE_FOR_CORE_+0x280bfa>
     586:	0004      	ldrb r0,[r0]
     588:	b800      	beq 4f8 <_impure_data+0x2f8>
     58a:	3c88 2a03 	blt 540c02 <__PROG_SIZE_FOR_CORE_+0x440c02>
     58e:	0004      	ldrb r0,[r0]
     590:	bc00      	beq 508 <_impure_data+0x308>
     592:	3c88 6503 	blt ca0c0a <__PROG_SIZE_FOR_CORE_+0xba0c0a>
     596:	0004      	ldrb r0,[r0]
     598:	c000      	beq 518 <_impure_data+0x318>
     59a:	3c88 8e03 	blt ff1c0c12 <__SHARED_DRAM_+0x711c0c12>
     59e:	0002      	moveq r0,r0
     5a0:	c800      	beq 530 <_impure_data+0x330>
     5a2:	3c88 2b03 	blt 560c1a <__PROG_SIZE_FOR_CORE_+0x460c1a>
     5a6:	0003      	mov r0,0x0
     5a8:	8000      	beq 4a8 <_impure_data+0x2a8>
     5aa:	3c8a      	eor r1,r7,r1
     5ac:	7303      	mov r3,0x98
     5ae:	0004      	ldrb r0,[r0]
     5b0:	8400      	beq 4b8 <_impure_data+0x2b8>
     5b2:	3c8a      	eor r1,r7,r1
     5b4:	cc03      	mov r6,0x60
     5b6:	0002      	moveq r0,r0
     5b8:	8800      	beq 4c8 <_impure_data+0x2c8>
     5ba:	3c8a      	eor r1,r7,r1
     5bc:	5003      	mov r2,0x80
     5be:	0003      	mov r0,0x0
     5c0:	8c00      	beq 4d8 <_impure_data+0x2d8>
     5c2:	3c8a      	eor r1,r7,r1
     5c4:	8403      	mov r4,0x20
     5c6:	0004      	ldrb r0,[r0]
     5c8:	9000      	beq 4e8 <_impure_data+0x2e8>
     5ca:	3c8a      	eor r1,r7,r1
     5cc:	a203      	mov r5,0x10
     5ce:	0003      	mov r0,0x0
     5d0:	9400      	beq 4f8 <_impure_data+0x2f8>
     5d2:	3c8a      	eor r1,r7,r1
     5d4:	b503      	mov r5,0xa8
     5d6:	0003      	mov r0,0x0
     5d8:	9800      	beq 508 <_impure_data+0x308>
     5da:	3c8a      	eor r1,r7,r1
     5dc:	5403      	mov r2,0xa0
     5de:	0004      	ldrb r0,[r0]
     5e0:	9c00      	beq 518 <_impure_data+0x318>
     5e2:	3c8a      	eor r1,r7,r1
     5e4:	9603      	mov r4,0xb0
     5e6:	0004      	ldrb r0,[r0]
     5e8:	a000      	beq 528 <_impure_data+0x328>
     5ea:	3c8a      	eor r1,r7,r1
     5ec:	6203      	mov r3,0x10
     5ee:	0003      	mov r0,0x0
     5f0:	a400      	beq 538 <_impure_data+0x338>
     5f2:	3c8a      	eor r1,r7,r1
     5f4:	0c03      	mov r0,0x60
     5f6:	0004      	ldrb r0,[r0]
     5f8:	a800      	beq 548 <_impure_data+0x348>
     5fa:	3c8a      	eor r1,r7,r1
     5fc:	dc03      	mov r6,0xe0
     5fe:	0002      	moveq r0,r0
     600:	ac00      	beq 558 <_impure_data+0x358>
     602:	3c8a      	eor r1,r7,r1
     604:	7e03      	mov r3,0xf0
     606:	0003      	mov r0,0x0
     608:	b000      	beq 568 <_impure_data+0x368>
     60a:	3c8a      	eor r1,r7,r1
     60c:	d503      	mov r6,0xa8
     60e:	0003      	mov r0,0x0
     610:	b400      	beq 578 <_impure_data+0x378>
     612:	3c8a      	eor r1,r7,r1
     614:	e803      	mov r7,0x40
     616:	0003      	mov r0,0x0
     618:	b800      	beq 588 <_impure_data+0x388>
     61a:	3c8a      	eor r1,r7,r1
     61c:	1a03      	mov r0,0xd0
     61e:	0003      	mov r0,0x0
     620:	bc00      	beq 598 <_impure_data+0x398>
     622:	3c8a      	eor r1,r7,r1
     624:	4403      	mov r2,0x20
     626:	0004      	ldrb r0,[r0]
     628:	8400      	beq 530 <_impure_data+0x330>
     62a:	3c8c fb03 	ldrb r57,[r55],-0x19
     62e:	0003      	mov r0,0x0
     630:	8800      	beq 540 <_impure_data+0x340>
     632:	3c8c ff03 	ldrb r57,[r63],-0x19
     636:	0002      	moveq r0,r0
     638:	8000      	beq 538 <_impure_data+0x338>
     63a:	3c8e      	asr r1,r7,0x4
     63c:	af03      	mov r5,0x78
     63e:	0002      	moveq r0,r0
     640:	8400      	beq 548 <_impure_data+0x348>
     642:	3c8e      	asr r1,r7,0x4
     644:	ee03      	mov r7,0x70
     646:	0002      	moveq r0,r0
     648:	8c00      	beq 560 <_impure_data+0x360>
     64a:	3c8e      	asr r1,r7,0x4
     64c:	0400      	beq 654 <init+0x6>
     64e:	05f7      	fabs rd,rn
     650:	0000      	beq 650 <init+0x2>
     652:	9502      	movts lc,r4
     654:	0025      	ldrh r0,[r0],r0
     656:	0000      	beq 656 <init+0x8>
     658:	ea04      	ldrb r7,[r2,0x4]
     65a:	0004      	ldrb r0,[r0]
     65c:	0300      	beq 662 <init+0x14>
     65e:	7c20      	bgtu 756 <_register_tm_clones+0x1a>
     660:	0001      	ldrb r0,[r0,r0]
     662:	0500      	beq 66c <init+0x1e>
     664:	0704      	ldrb r0,[r1,0x6]
     666:	0753 0000 	*unknown*
     66a:	0402      	moveq r0,r1
     66c:	2f03      	mov r1,0x78
     66e:	01bc 0000 	strh r0,[r0,+0x3]
     672:	0803      	mov r0,0x40
     674:	0005      	ldrb r0,[r0],r0
     676:	0000      	beq 676 <init+0x28>
     678:	1803      	mov r0,0xc0
     67a:	0005      	ldrb r0,[r0],r0
     67c:	0100      	beq 67e <init+0x30>
     67e:	fd03      	mov r7,0xe8
     680:	0004      	ldrb r0,[r0]
     682:	0200      	beq 686 <_epiphany_start+0x6>
     684:	7803      	mov r3,0xc0
     686:	0005      	ldrb r0,[r0],r0
     688:	0300      	beq 68e <_epiphany_start+0xe>
     68a:	9d03      	mov r4,0xe8
     68c:	0005      	ldrb r0,[r0],r0
     68e:	0400      	beq 696 <_epiphany_start+0x16>
     690:	2303      	mov r1,0x18
     692:	0006      	lsr r0,r0,0x0
     694:	0500      	beq 69e <_epiphany_start+0x1e>
     696:	d703      	mov r6,0xb8
     698:	0004      	ldrb r0,[r0]
     69a:	0600      	beq 6a6 <_epiphany_start+0x26>
     69c:	5f03      	mov r2,0xf8
     69e:	0005      	ldrb r0,[r0],r0
     6a0:	0700      	beq 6ae <_epiphany_start+0x2e>
     6a2:	0400      	beq 6aa <_epiphany_start+0x2a>
     6a4:	0553 0000 	*unknown*
     6a8:	3803      	mov r1,0xc0
     6aa:	0183      	mov r0,0xc
     6ac:	0000      	beq 6ac <_epiphany_start+0x2c>
     6ae:	0402      	moveq r0,r1
     6b0:	3a03      	mov r1,0xd0
     6b2:	01dc 0000 	str r0,[r0,+0x3]
     6b6:	d003      	mov r6,0x80
     6b8:	0005      	ldrb r0,[r0],r0
     6ba:	0000      	beq 6ba <_epiphany_start+0x3a>
     6bc:	3103      	mov r1,0x88
     6be:	0005      	ldrb r0,[r0],r0
     6c0:	0100      	beq 6c2 <_epiphany_start+0x42>
     6c2:	0400      	beq 6ca <_epiphany_start+0x4a>
     6c4:	05a8 0000 	bbeq 6ce <_epiphany_start+0x4e>
     6c8:	3d03      	mov r1,0xe8
     6ca:	01c7      	fmsub r0,r0,r3
     6cc:	0000      	beq 6cc <_epiphany_start+0x4c>
     6ce:	2806      	lsr r1,r2,0x0
     6d0:	3f03      	mov r1,0xf8
     6d2:	0268 0000 	bgt 6d6 <_epiphany_start+0x56>
     6d6:	f507      	fadd r7,r5,r2
     6d8:	0004      	ldrb r0,[r0]
     6da:	0300      	beq 6e0 <_epiphany_start+0x60>
     6dc:	bc40      	blteu 654 <init+0x6>
     6de:	0001      	ldrb r0,[r0,r0]
     6e0:	0000      	beq 6e0 <_epiphany_start+0x60>
     6e2:	e107      	fadd r7,r0,r2
     6e4:	0004      	ldrb r0,[r0]
     6e6:	0300      	beq 6ec <RDS+0x4>
     6e8:	dc41      	ldr r6,[r7,r0]
     6ea:	0001      	ldrb r0,[r0,r0]
     6ec:	0400      	beq 6f4 <RDS+0xc>
     6ee:	0f07      	fadd r0,r3,r6
     6f0:	0005      	ldrb r0,[r0],r0
     6f2:	0300      	beq 6f8 <RDS+0x10>
     6f4:	7142 0001 	*unknown*
     6f8:	0800      	beq 708 <RDS+0x20>
     6fa:	b507      	fadd r5,r5,r2
     6fc:	0005      	ldrb r0,[r0],r0
     6fe:	0300      	beq 704 <RDS+0x1c>
     700:	7c43      	mov r3,0xe2
     702:	0001      	ldrb r0,[r0,r0]
     704:	0c00      	beq 71c <_deregister_tm_clones+0xc>
     706:	2707      	fadd r1,r1,r6
     708:	0005      	ldrb r0,[r0],r0
     70a:	0300      	beq 710 <_deregister_tm_clones>
     70c:	7c44      	ldr r3,[r7]
     70e:	0001      	ldrb r0,[r0,r0]
     710:	1000      	beq 730 <_deregister_tm_clones+0x20>
     712:	da07      	fadd r6,r6,r4
     714:	0005      	ldrb r0,[r0],r0
     716:	0300      	beq 71c <_deregister_tm_clones+0xc>
     718:	7c45      	ldr r3,[r7],r0
     71a:	0001      	ldrb r0,[r0,r0]
     71c:	1400      	beq 744 <_register_tm_clones+0x8>
     71e:	1807      	fadd r0,r6,r0
     720:	0006      	lsr r0,r0,0x0
     722:	0300      	beq 728 <_deregister_tm_clones+0x18>
     724:	7c46      	lsr r3,r7,0x2
     726:	0001      	ldrb r0,[r0,r0]
     728:	1800      	beq 758 <_register_tm_clones+0x1c>
     72a:	4a07      	fadd r2,r2,r4
     72c:	0005      	ldrb r0,[r0],r0
     72e:	0300      	beq 734 <_deregister_tm_clones+0x24>
     730:	7c47      	fmsub r3,r7,r0
     732:	0001      	ldrb r0,[r0,r0]
     734:	1c00      	beq 76c <___do_global_dtors_aux>
     736:	c707      	fadd r6,r1,r6
     738:	0005      	ldrb r0,[r0],r0
     73a:	0300      	beq 740 <_register_tm_clones+0x4>
     73c:	7c48 0001 	blteu a34 <_e_dma_start+0x84>
     740:	2000      	beq 780 <___do_global_dtors_aux+0x14>
     742:	e507      	fadd r7,r1,r2
     744:	0005      	ldrb r0,[r0],r0
     746:	0300      	beq 74c <_register_tm_clones+0x10>
     748:	7c49 0001 	*unknown*
     74c:	2400      	beq 794 <___do_global_dtors_aux+0x28>
     74e:	0400      	beq 756 <_register_tm_clones+0x1a>
     750:	0607      	fadd r0,r1,r4
     752:	0000      	beq 752 <_register_tm_clones+0x16>
     754:	4a03      	mov r2,0x50
     756:	01e7      	fix r0,r0
     758:	0000      	beq 758 <_register_tm_clones+0x1c>
     75a:	6c08 0005 	beq 1232 <__HALF_BANK_SIZE_+0x232>
     75e:	0100      	beq 760 <_register_tm_clones+0x24>
     760:	681d 000a 	*unknown*
     764:	8e00      	beq 680 <_epiphany_start>
     766:	0000      	beq 766 <_register_tm_clones+0x2a>
     768:	0100      	beq 76a <_register_tm_clones+0x2e>
     76a:	c19c 0002 	strb r6,[r0,+0x13]
     76e:	0900      	beq 780 <___do_global_dtors_aux+0x14>
     770:	0584      	ldrb r0,[r1,0x3]
     772:	0000      	beq 772 <___do_global_dtors_aux+0x6>
     774:	1d01      	ldrb r0,[r7,r2]
     776:	0166      	lsr r0,r0,0xb
     778:	0000      	beq 778 <___do_global_dtors_aux+0xc>
     77a:	9102      	movts iab,r4
     77c:	0a6c 6176 	ldrd r24,[r2,-0x3b4]
     780:	006c 1d01 	ldrd r0,[r56,-0x8]
     784:	017c 0000 	strd r0,[r0,+0x2]
     788:	9102      	movts iab,r4
     78a:	0b68 05bf 	bgt b85a0 <__stack_start_+0xb05b0>
     78e:	0000      	beq 78e <___do_global_dtors_aux+0x22>
     790:	1f01      	ldrb r0,[r7,r6]
     792:	02c1      	ldr r0,[r0,r5]
     794:	0000      	beq 794 <___do_global_dtors_aux+0x28>
     796:	9102      	movts iab,r4
     798:	0b70      	bgte 7ae <___do_global_dtors_aux+0x42>
     79a:	0076      	lsl r0,r0,0x3
     79c:	0000      	beq 79c <___do_global_dtors_aux+0x30>
     79e:	2001      	ldrb r1,[r0,r0]
     7a0:	02c6      	lsr r0,r0,0x16
     7a2:	0000      	beq 7a2 <___do_global_dtors_aux+0x36>
     7a4:	9102      	movts iab,r4
     7a6:	0074      	strd r0,[r0]
     7a8:	7c0c 0001 	ldrb r3,[r7,+0x8]
     7ac:	0d00      	beq 7c6 <___do_global_dtors_aux+0x5a>
     7ae:	7c04      	ldrb r3,[r7]
     7b0:	0001      	ldrb r0,[r0,r0]
     7b2:	0e00      	beq 7ce <___do_global_dtors_aux+0x62>
     7b4:	053b 0000 	sub r0,r1,2
     7b8:	5103      	mov r2,0x88
     7ba:	02d7      	float r0,r0
     7bc:	0000      	beq 7bc <___do_global_dtors_aux+0x50>
     7be:	680f 0002 	moveq r3,r2
     7c2:	0000      	beq 7c2 <___do_global_dtors_aux+0x56>
     7c4:	0174      	strd r0,[r0,0x2]
     7c6:	0000      	beq 7c6 <___do_global_dtors_aux+0x5a>
     7c8:	0004      	ldrb r0,[r0]
     7ca:	024d 0000 	ldr r0,[r0],+r4
     7ce:	0104      	ldrb r0,[r0,0x2]
     7d0:	017b 0000 	*unknown*
     7d4:	3b01      	ldrb r1,[r6,r6]
     7d6:	0006      	lsr r0,r0,0x0
     7d8:	fc00      	beq 7d0 <___do_global_dtors_aux+0x64>
     7da:	0000      	beq 7da <___do_global_dtors_aux+0x6e>
     7dc:	0e00      	beq 7f8 <_frame_dummy+0x14>
     7de:	0003      	mov r0,0x0
     7e0:	0200      	beq 7e4 <_frame_dummy>
     7e2:	04ea      	asr r0,r1,r1
     7e4:	0000      	beq 7e4 <_frame_dummy>
     7e6:	2001      	ldrb r1,[r0,r0]
     7e8:	0028 0000 	bgtu 7e8 <_frame_dummy+0x4>
     7ec:	0403      	mov r0,0x20
     7ee:	5307      	fadd r2,r4,r6
     7f0:	0007      	fadd r0,r0,r0
     7f2:	0400      	beq 7fa <_frame_dummy+0x16>
     7f4:	0104      	ldrb r0,[r0,0x2]
     7f6:	682f 0000 	*unknown*
     7fa:	0500      	beq 804 <__HEAP_SIZE_FOR_CORE_+0x4>
     7fc:	0508 0000 	beq 806 <__HEAP_SIZE_FOR_CORE_+0x6>
     800:	0500      	beq 80a <__HEAP_SIZE_FOR_CORE_+0xa>
     802:	0518 0000 	bne 80c <__HEAP_SIZE_FOR_CORE_+0xc>
     806:	0501      	ldrb r0,[r1,r2]
     808:	04fd 0000 	strd r0,[r1],+r1
     80c:	0502      	movts status,r0
     80e:	0578 0000 	bgte 818 <__HEAP_SIZE_FOR_CORE_+0x18>
     812:	0503      	mov r0,0x28
     814:	059d 0000 	strb r0,[r1],+r3
     818:	0504      	ldrb r0,[r1,0x2]
     81a:	0623      	mov r0,0x31
     81c:	0000      	beq 81c <__HEAP_SIZE_FOR_CORE_+0x1c>
     81e:	0505      	ldrb r0,[r1],r2
     820:	04d7      	float r0,r1
     822:	0000      	beq 822 <_main+0x2>
     824:	0506      	lsr r0,r1,0x8
     826:	055f 0000 	*unknown*
     82a:	0007      	fadd r0,r0,r0
     82c:	5302 0005 	*unknown*
     830:	0100      	beq 832 <_main+0x12>
     832:	2f38 0000 	bgteu 890 <_e_dma_copy+0x20>
     836:	0400      	beq 83e <_main+0x1e>
     838:	0104      	ldrb r0,[r0,0x2]
     83a:	883a      	sub r4,r2,r0
     83c:	0000      	beq 83c <_main+0x1c>
     83e:	0500      	beq 848 <_main+0x28>
     840:	05d0      	bblte 84a <_main+0x2a>
     842:	0000      	beq 842 <_main+0x22>
     844:	0500      	beq 84e <_main+0x2e>
     846:	0531      	strh r0,[r1,r2]
     848:	0000      	beq 848 <_main+0x28>
     84a:	0001      	ldrb r0,[r0,r0]
     84c:	a802      	moveq r5,r2
     84e:	0005      	ldrb r0,[r0],r0
     850:	0100      	beq 852 <_main+0x32>
     852:	733d 0000 	strh r3,[r4],+r6
     856:	0600      	beq 862 <_main+0x42>
     858:	0128 143f 	bgtu 28865a <__PROG_SIZE_FOR_CORE_+0x18865a>
     85c:	0001      	ldrb r0,[r0,r0]
     85e:	0700      	beq 86c <_main+0x4c>
     860:	04f5      	strd r0,[r1],r1
     862:	0000      	beq 862 <_main+0x42>
     864:	4001      	ldrb r2,[r0,r0]
     866:	0068 0000 	bgt 866 <_main+0x46>
     86a:	0700      	beq 878 <_e_dma_copy+0x8>
     86c:	04e1      	ldrd r0,[r1,r1]
     86e:	0000      	beq 86e <_main+0x4e>
     870:	4101      	ldrb r2,[r0,r2]
     872:	0088 0000 	blt 872 <_e_dma_copy+0x2>
     876:	0704      	ldrb r0,[r1,0x6]
     878:	050f 0000 	*unknown*
     87c:	4201      	ldrb r2,[r0,r4]
     87e:	001d 0000 	strb r0,[r0],+r0
     882:	0708 05b5 	beq b7290 <__stack_start_+0xaf2a0>
     886:	0000      	beq 886 <_e_dma_copy+0x16>
     888:	4301      	ldrb r2,[r0,r6]
     88a:	0028 0000 	bgtu 88a <_e_dma_copy+0x1a>
     88e:	070c 0527 	ldrb r0,[r9,-0x13e]
     892:	0000      	beq 892 <_e_dma_copy+0x22>
     894:	4401      	ldrb r2,[r1,r0]
     896:	0028 0000 	bgtu 896 <_e_dma_copy+0x26>
     89a:	0710      	bne 8a8 <_e_dma_copy+0x38>
     89c:	05da      	and r0,r1,r3
     89e:	0000      	beq 89e <_e_dma_copy+0x2e>
     8a0:	4501      	ldrb r2,[r1,r2]
     8a2:	0028 0000 	bgtu 8a2 <_e_dma_copy+0x32>
     8a6:	0714      	strb r0,[r1,0x6]
     8a8:	0618 0000 	bne 8b4 <_e_dma_copy+0x44>
     8ac:	4601      	ldrb r2,[r1,r4]
     8ae:	0028 0000 	bgtu 8ae <_e_dma_copy+0x3e>
     8b2:	0718 054a 	bne a9cc0 <__stack_start_+0xa1cd0>
     8b6:	0000      	beq 8b6 <_e_dma_copy+0x46>
     8b8:	4701      	ldrb r2,[r1,r6]
     8ba:	0028 0000 	bgtu 8ba <_e_dma_copy+0x4a>
     8be:	071c 05c7 	strb r0,[r9,-0x63e]
     8c2:	0000      	beq 8c2 <_e_dma_copy+0x52>
     8c4:	4801      	ldrb r2,[r2,r0]
     8c6:	0028 0000 	bgtu 8c6 <_e_dma_copy+0x56>
     8ca:	0720      	bgtu 8d8 <_e_dma_copy+0x68>
     8cc:	05e5      	ldrd r0,[r1],r3
     8ce:	0000      	beq 8ce <_e_dma_copy+0x5e>
     8d0:	4901      	ldrb r2,[r2,r2]
     8d2:	0028 0000 	bgtu 8d2 <_e_dma_copy+0x62>
     8d6:	0024      	ldrh r0,[r0]
     8d8:	0702 0006 	*unknown*
     8dc:	0100      	beq 8de <_e_dma_copy+0x6e>
     8de:	934a      	lsr r4,r4,r6
     8e0:	0000      	beq 8e0 <_e_dma_copy+0x70>
     8e2:	0600      	beq 8ee <_e_dma_copy+0x7e>
     8e4:	0108 404c 	beq 80a0e6 <__PROG_SIZE_FOR_CORE_+0x70a0e6>
     8e8:	0001      	ldrb r0,[r0,r0]
     8ea:	0700      	beq 8f8 <_e_dma_copy+0x88>
     8ec:	04f5      	strd r0,[r1],r1
     8ee:	0000      	beq 8ee <_e_dma_copy+0x7e>
     8f0:	4d01      	ldrb r2,[r3,r2]
     8f2:	0068 0000 	bgt 8f2 <_e_dma_copy+0x82>
     8f6:	0700      	beq 904 <_e_dma_copy+0x94>
     8f8:	07a4      	ldrh r0,[r1,0x7]
     8fa:	0000      	beq 8fa <_e_dma_copy+0x8a>
     8fc:	4e01      	ldrb r2,[r3,r4]
     8fe:	0028 0000 	bgtu 8fe <_e_dma_copy+0x8e>
     902:	0004      	ldrb r0,[r0]
     904:	5102      	movts iab,r2
     906:	0006      	lsr r0,r0,0x0
     908:	0100      	beq 90a <_e_dma_copy+0x9a>
     90a:	1f4f 0001 	*unknown*
     90e:	0800      	beq 91e <_e_dma_copy+0xae>
     910:	053b 0000 	sub r0,r1,2
     914:	2002      	moveq r1,r0
     916:	015c 0000 	str r0,[r0,+0x2]
     91a:	0305      	ldrb r0,[r0],r6
     91c:	0028 0000 	bgtu 91c <_e_dma_copy+0xac>
     920:	1409 0001 	*unknown*
     924:	0800      	beq 934 <_e_dma_copy+0xc4>
     926:	062d 0000 	ldrh r0,[r1],+r4
     92a:	2202 0172 	*unknown*
     92e:	0000      	beq 92e <_e_dma_copy+0xbe>
     930:	0305      	ldrb r0,[r0],r6
     932:	0050      	bltu 932 <_e_dma_copy+0xc2>
     934:	0000      	beq 934 <_e_dma_copy+0xc4>
     936:	4009 0001 	*unknown*
     93a:	0000      	beq 93a <_e_dma_copy+0xca>
     93c:	019d 0000 	strb r0,[r0],+r3
     940:	0004      	ldrb r0,[r0]
     942:	02bf 0000 	*unknown*
     946:	0104      	ldrb r0,[r0,0x2]
     948:	017b 0000 	*unknown*
     94c:	6601      	ldrb r3,[r1,r4]
     94e:	0006      	lsr r0,r0,0x0
     950:	fc00      	beq 948 <_e_dma_copy+0xd8>
     952:	0000      	beq 952 <_e_dma_copy+0xe2>
     954:	f800      	beq 944 <_e_dma_copy+0xd4>
     956:	000a      	eor r0,r0,r0
     958:	a000      	beq 898 <_e_dma_copy+0x28>
     95a:	0000      	beq 95a <_e_dma_copy+0xea>
     95c:	6500      	beq a26 <_e_dma_start+0x76>
     95e:	0003      	mov r0,0x0
     960:	0200      	beq 964 <_e_dma_copy+0xf4>
     962:	04ea      	asr r0,r1,r1
     964:	0000      	beq 964 <_e_dma_copy+0xf4>
     966:	2002      	moveq r1,r0
     968:	0030      	bgteu 968 <_e_dma_copy+0xf8>
     96a:	0000      	beq 96a <_e_dma_copy+0xfa>
     96c:	0403      	mov r0,0x20
     96e:	5307      	fadd r2,r4,r6
     970:	0007      	fadd r0,r0,r0
     972:	0400      	beq 97a <_e_dma_copy+0x10a>
     974:	0204      	ldrb r0,[r0,0x4]
     976:	702f 0000 	*unknown*
     97a:	0500      	beq 984 <_e_dma_copy+0x114>
     97c:	0508 0000 	beq 986 <_e_dma_copy+0x116>
     980:	0500      	beq 98a <_e_dma_copy+0x11a>
     982:	0518 0000 	bne 98c <_e_dma_copy+0x11c>
     986:	0501      	ldrb r0,[r1,r2]
     988:	04fd 0000 	strd r0,[r1],+r1
     98c:	0502      	movts status,r0
     98e:	0578 0000 	bgte 998 <_e_dma_copy+0x128>
     992:	0503      	mov r0,0x28
     994:	059d 0000 	strb r0,[r1],+r3
     998:	0504      	ldrb r0,[r1,0x2]
     99a:	0623      	mov r0,0x31
     99c:	0000      	beq 99c <_e_dma_copy+0x12c>
     99e:	0505      	ldrb r0,[r1],r2
     9a0:	04d7      	float r0,r1
     9a2:	0000      	beq 9a2 <_e_dma_copy+0x132>
     9a4:	0506      	lsr r0,r1,0x8
     9a6:	055f 0000 	*unknown*
     9aa:	0007      	fadd r0,r0,r0
     9ac:	5302 0005 	*unknown*
     9b0:	0200      	beq 9b4 <_e_dma_start+0x4>
     9b2:	3738 0000 	bgteu a20 <_e_dma_start+0x70>
     9b6:	0400      	beq 9be <_e_dma_start+0xe>
     9b8:	0204      	ldrb r0,[r0,0x4]
     9ba:	903a      	sub r4,r4,r0
     9bc:	0000      	beq 9bc <_e_dma_start+0xc>
     9be:	0500      	beq 9c8 <_e_dma_start+0x18>
     9c0:	05d0      	bblte 9ca <_e_dma_start+0x1a>
     9c2:	0000      	beq 9c2 <_e_dma_start+0x12>
     9c4:	0500      	beq 9ce <_e_dma_start+0x1e>
     9c6:	0531      	strh r0,[r1,r2]
     9c8:	0000      	beq 9c8 <_e_dma_start+0x18>
     9ca:	0001      	ldrb r0,[r0,r0]
     9cc:	a802      	moveq r5,r2
     9ce:	0005      	ldrb r0,[r0],r0
     9d0:	0200      	beq 9d4 <_e_dma_start+0x24>
     9d2:	7b3d 0000 	strh r3,[r6],+r6
     9d6:	0600      	beq 9e2 <_e_dma_start+0x32>
     9d8:	0228 1c3f 	bgtu 3887dc <__PROG_SIZE_FOR_CORE_+0x2887dc>
     9dc:	0001      	ldrb r0,[r0,r0]
     9de:	0700      	beq 9ec <_e_dma_start+0x3c>
     9e0:	04f5      	strd r0,[r1],r1
     9e2:	0000      	beq 9e2 <_e_dma_start+0x32>
     9e4:	4002      	moveq r2,r0
     9e6:	0070      	bgte 9e6 <_e_dma_start+0x36>
     9e8:	0000      	beq 9e8 <_e_dma_start+0x38>
     9ea:	0700      	beq 9f8 <_e_dma_start+0x48>
     9ec:	04e1      	ldrd r0,[r1,r1]
     9ee:	0000      	beq 9ee <_e_dma_start+0x3e>
     9f0:	4102      	movts config,r2
     9f2:	0090      	blte 9f2 <_e_dma_start+0x42>
     9f4:	0000      	beq 9f4 <_e_dma_start+0x44>
     9f6:	0704      	ldrb r0,[r1,0x6]
     9f8:	050f 0000 	*unknown*
     9fc:	4202 0025 	*unknown*
     a00:	0000      	beq a00 <_e_dma_start+0x50>
     a02:	0708 05b5 	beq b7410 <__stack_start_+0xaf420>
     a06:	0000      	beq a06 <_e_dma_start+0x56>
     a08:	4302 0030 	*unknown*
     a0c:	0000      	beq a0c <_e_dma_start+0x5c>
     a0e:	070c 0527 	ldrb r0,[r9,-0x13e]
     a12:	0000      	beq a12 <_e_dma_start+0x62>
     a14:	4402      	moveq r2,r1
     a16:	0030      	bgteu a16 <_e_dma_start+0x66>
     a18:	0000      	beq a18 <_e_dma_start+0x68>
     a1a:	0710      	bne a28 <_e_dma_start+0x78>
     a1c:	05da      	and r0,r1,r3
     a1e:	0000      	beq a1e <_e_dma_start+0x6e>
     a20:	4502      	movts status,r2
     a22:	0030      	bgteu a22 <_e_dma_start+0x72>
     a24:	0000      	beq a24 <_e_dma_start+0x74>
     a26:	0714      	strb r0,[r1,0x6]
     a28:	0618 0000 	bne a34 <_e_dma_start+0x84>
     a2c:	4602 0030 	*unknown*
     a30:	0000      	beq a30 <_e_dma_start+0x80>
     a32:	0718 054a 	bne a9e40 <__stack_start_+0xa1e50>
     a36:	0000      	beq a36 <_e_dma_start+0x86>
     a38:	4702 0030 	*unknown*
     a3c:	0000      	beq a3c <_e_dma_start+0x8c>
     a3e:	071c 05c7 	strb r0,[r9,-0x63e]
     a42:	0000      	beq a42 <_e_dma_start+0x92>
     a44:	4802      	moveq r2,r2
     a46:	0030      	bgteu a46 <_e_dma_start+0x96>
     a48:	0000      	beq a48 <_e_dma_start+0x98>
     a4a:	0720      	bgtu a58 <_e_dma_start+0xa8>
     a4c:	05e5      	ldrd r0,[r1],r3
     a4e:	0000      	beq a4e <_e_dma_start+0x9e>
     a50:	4902      	movts pc,r2
     a52:	0030      	bgteu a52 <_e_dma_start+0xa2>
     a54:	0000      	beq a54 <_e_dma_start+0xa4>
     a56:	0024      	ldrh r0,[r0]
     a58:	0702 0006 	*unknown*
     a5c:	0200      	beq a60 <_e_dma_start+0xb0>
     a5e:	9b4a      	lsr r4,r6,r6
     a60:	0000      	beq a60 <_e_dma_start+0xb0>
     a62:	0800      	beq a72 <_e_reg_write+0xa>
     a64:	0688 0000 	blt a70 <_e_reg_write+0x8>
     a68:	1e01      	ldrb r0,[r7,r4]
     a6a:	0187      	fadd r0,r0,r3
     a6c:	0000      	beq a6c <_e_reg_write+0x4>
     a6e:	0af8 0000 	bl a82 <_e_reg_write+0x1a>
     a72:	00a0      	bbeq a72 <_e_reg_write+0xa>
     a74:	0000      	beq a74 <_e_reg_write+0xc>
     a76:	9c01      	ldrb r4,[r7,r0]
     a78:	0187      	fadd r0,r0,r3
     a7a:	0000      	beq a7a <_e_reg_write+0x12>
     a7c:	7209 776f 	*unknown*
     a80:	0100      	beq a82 <_e_reg_write+0x1a>
     a82:	301e      	bitr r1,r4
     a84:	0000      	beq a84 <_e_reg_write+0x1c>
     a86:	0200      	beq a8a <_e_reg_write+0x22>
     a88:	6c91      	strb r3,[r3,r1]
     a8a:	6309 6c6f 	*unknown*
     a8e:	0100      	beq a90 <_e_reg_write+0x28>
     a90:	301e      	bitr r1,r4
     a92:	0000      	beq a92 <_e_reg_write+0x2a>
     a94:	0200      	beq a98 <_e_reg_write+0x30>
     a96:	6891      	strb r3,[r2,r1]
     a98:	7009 7274 	*unknown*
     a9c:	0100      	beq a9e <_e_reg_write+0x36>
     a9e:	891e 0001 	*unknown*
     aa2:	0200      	beq aa6 <_e_reg_write+0x3e>
     aa4:	6491      	strb r3,[r1,r1]
     aa6:	610a      	eor r3,r0,r2
     aa8:	0006      	lsr r0,r0,0x0
     aaa:	0100      	beq aac <_e_reg_write+0x44>
     aac:	3020      	bgtu b0c <_e_get_global_address+0x14>
     aae:	0000      	beq aae <_e_reg_write+0x46>
     ab0:	0200      	beq ab4 <_e_reg_write+0x4c>
     ab2:	7091      	strb r3,[r4,r1]
     ab4:	e90a      	eor r7,r2,r2
     ab6:	0006      	lsr r0,r0,0x0
     ab8:	0100      	beq aba <_e_reg_write+0x52>
     aba:	2521      	ldrh r1,[r1,r2]
     abc:	0000      	beq abc <_e_reg_write+0x54>
     abe:	0200      	beq ac2 <_e_reg_write+0x5a>
     ac0:	7491      	strb r3,[r5,r1]
     ac2:	0b00      	beq ad8 <_e_reg_write+0x70>
     ac4:	0c04      	ldrb r0,[r3]
     ac6:	8f04      	ldrb r4,[r3,0x6]
     ac8:	0001      	ldrb r0,[r0,r0]
     aca:	0d00      	beq ae4 <_e_reg_write+0x7c>
     acc:	3b0e      	asr r1,r6,0x18
     ace:	0005      	ldrb r0,[r0],r0
     ad0:	0200      	beq ad4 <_e_reg_write+0x6c>
     ad2:	9b51      	str r4,[r6,r6]
     ad4:	0001      	ldrb r0,[r0,r0]
     ad6:	0f00      	beq af4 <_e_reg_write+0x8c>
     ad8:	011c 0000 	strb r0,[r0,+0x2]
     adc:	c700      	beq a6a <_e_reg_write+0x2>
     ade:	0001      	ldrb r0,[r0,r0]
     ae0:	0400      	beq ae8 <_e_reg_write+0x80>
     ae2:	8400      	beq 9ea <_e_dma_start+0x3a>
     ae4:	0003      	mov r0,0x0
     ae6:	0400      	beq aee <_e_reg_write+0x86>
     ae8:	7b01      	ldrb r3,[r6,r6]
     aea:	0001      	ldrb r0,[r0,r0]
     aec:	0100      	beq aee <_e_reg_write+0x86>
     aee:	069d 0000 	strb r0,[r1],+r5
     af2:	00fc 0000 	strd r0,[r0,+0x1]
     af6:	0b98 0000 	blte b0c <_e_get_global_address+0x14>
     afa:	006a      	asr r0,r0,r0
     afc:	0000      	beq afc <_e_get_global_address+0x4>
     afe:	0432      	movgteu r0,r1
     b00:	0000      	beq b00 <_e_get_global_address+0x8>
     b02:	0402      	moveq r0,r1
     b04:	6602 0166 	*unknown*
     b08:	0000      	beq b08 <_e_get_global_address+0x10>
     b0a:	a703      	mov r5,0x38
     b0c:	0004      	ldrb r0,[r0]
     b0e:	8000      	beq a0e <_e_dma_start+0x5e>
     b10:	3c80      	blt b88 <_e_get_global_address+0x90>
     b12:	bf03      	mov r5,0xf8
     b14:	0004      	ldrb r0,[r0]
     b16:	8000      	beq a16 <_e_dma_start+0x66>
     b18:	3c88 3c03 	blt 781190 <__PROG_SIZE_FOR_CORE_+0x681190>
     b1c:	0003      	mov r0,0x0
     b1e:	8400      	beq a26 <_e_dma_start+0x76>
     b20:	3c88 6203 	blt c41198 <__PROG_SIZE_FOR_CORE_+0xb41198>
     b24:	0002      	moveq r0,r0
     b26:	8800      	beq a36 <_e_dma_start+0x86>
     b28:	3c88 9003 	blt ff2011a0 <__SHARED_DRAM_+0x712011a0>
     b2c:	0003      	mov r0,0x0
     b2e:	8c00      	beq a46 <_e_dma_start+0x96>
     b30:	3c88 4103 	blt 8211a8 <__PROG_SIZE_FOR_CORE_+0x7211a8>
     b34:	0002      	moveq r0,r0
     b36:	9400      	beq a5e <_e_dma_start+0xae>
     b38:	3c88 5903 	blt b211b0 <__PROG_SIZE_FOR_CORE_+0xa211b0>
     b3c:	0002      	moveq r0,r0
     b3e:	9800      	beq a6e <_e_reg_write+0x6>
     b40:	3c88 4a03 	blt 9411b8 <__PROG_SIZE_FOR_CORE_+0x8411b8>
     b44:	0002      	moveq r0,r0
     b46:	9c00      	beq a7e <_e_reg_write+0x16>
     b48:	3c88 7303 	blt e611c0 <__PROG_SIZE_FOR_CORE_+0xd611c0>
     b4c:	0003      	mov r0,0x0
     b4e:	a000      	beq a8e <_e_reg_write+0x26>
     b50:	3c88 8203 	blt ff0411c8 <__SHARED_DRAM_+0x710411c8>
     b54:	0002      	moveq r0,r0
     b56:	a400      	beq a9e <_e_reg_write+0x36>
     b58:	3c88 7703 	blt ee11d0 <__PROG_SIZE_FOR_CORE_+0xde11d0>
     b5c:	0002      	moveq r0,r0
     b5e:	a800      	beq aae <_e_reg_write+0x46>
     b60:	3c88 c803 	blt ff9011d8 <__SHARED_DRAM_+0x719011d8>
     b64:	0003      	mov r0,0x0
     b66:	ac00      	beq abe <_e_reg_write+0x56>
     b68:	3c88 0d03 	blt 1a11e0 <__PROG_SIZE_FOR_CORE_+0xa11e0>
     b6c:	0003      	mov r0,0x0
     b6e:	b000      	beq ace <_e_reg_write+0x66>
     b70:	3c88 6b03 	blt d611e8 <__PROG_SIZE_FOR_CORE_+0xc611e8>
     b74:	0002      	moveq r0,r0
     b76:	b400      	beq ade <_e_reg_write+0x76>
     b78:	3c88 1c03 	blt 3811f0 <__PROG_SIZE_FOR_CORE_+0x2811f0>
     b7c:	0004      	ldrb r0,[r0]
     b7e:	b800      	beq aee <_e_reg_write+0x86>
     b80:	3c88 2a03 	blt 5411f8 <__PROG_SIZE_FOR_CORE_+0x4411f8>
     b84:	0004      	ldrb r0,[r0]
     b86:	bc00      	beq afe <_e_get_global_address+0x6>
     b88:	3c88 6503 	blt ca1200 <__PROG_SIZE_FOR_CORE_+0xba1200>
     b8c:	0004      	ldrb r0,[r0]
     b8e:	c000      	beq b0e <_e_get_global_address+0x16>
     b90:	3c88 8e03 	blt ff1c1208 <__SHARED_DRAM_+0x711c1208>
     b94:	0002      	moveq r0,r0
     b96:	c800      	beq b26 <_e_get_global_address+0x2e>
     b98:	3c88 2b03 	blt 561210 <__PROG_SIZE_FOR_CORE_+0x461210>
     b9c:	0003      	mov r0,0x0
     b9e:	8000      	beq a9e <_e_reg_write+0x36>
     ba0:	3c8a      	eor r1,r7,r1
     ba2:	7303      	mov r3,0x98
     ba4:	0004      	ldrb r0,[r0]
     ba6:	8400      	beq aae <_e_reg_write+0x46>
     ba8:	3c8a      	eor r1,r7,r1
     baa:	cc03      	mov r6,0x60
     bac:	0002      	moveq r0,r0
     bae:	8800      	beq abe <_e_reg_write+0x56>
     bb0:	3c8a      	eor r1,r7,r1
     bb2:	5003      	mov r2,0x80
     bb4:	0003      	mov r0,0x0
     bb6:	8c00      	beq ace <_e_reg_write+0x66>
     bb8:	3c8a      	eor r1,r7,r1
     bba:	8403      	mov r4,0x20
     bbc:	0004      	ldrb r0,[r0]
     bbe:	9000      	beq ade <_e_reg_write+0x76>
     bc0:	3c8a      	eor r1,r7,r1
     bc2:	a203      	mov r5,0x10
     bc4:	0003      	mov r0,0x0
     bc6:	9400      	beq aee <_e_reg_write+0x86>
     bc8:	3c8a      	eor r1,r7,r1
     bca:	b503      	mov r5,0xa8
     bcc:	0003      	mov r0,0x0
     bce:	9800      	beq afe <_e_get_global_address+0x6>
     bd0:	3c8a      	eor r1,r7,r1
     bd2:	5403      	mov r2,0xa0
     bd4:	0004      	ldrb r0,[r0]
     bd6:	9c00      	beq b0e <_e_get_global_address+0x16>
     bd8:	3c8a      	eor r1,r7,r1
     bda:	9603      	mov r4,0xb0
     bdc:	0004      	ldrb r0,[r0]
     bde:	a000      	beq b1e <_e_get_global_address+0x26>
     be0:	3c8a      	eor r1,r7,r1
     be2:	6203      	mov r3,0x10
     be4:	0003      	mov r0,0x0
     be6:	a400      	beq b2e <_e_get_global_address+0x36>
     be8:	3c8a      	eor r1,r7,r1
     bea:	0c03      	mov r0,0x60
     bec:	0004      	ldrb r0,[r0]
     bee:	a800      	beq b3e <_e_get_global_address+0x46>
     bf0:	3c8a      	eor r1,r7,r1
     bf2:	dc03      	mov r6,0xe0
     bf4:	0002      	moveq r0,r0
     bf6:	ac00      	beq b4e <_e_get_global_address+0x56>
     bf8:	3c8a      	eor r1,r7,r1
     bfa:	7e03      	mov r3,0xf0
     bfc:	0003      	mov r0,0x0
     bfe:	b000      	beq b5e <_e_get_global_address+0x66>
     c00:	3c8a      	eor r1,r7,r1
     c02:	d503      	mov r6,0xa8
     c04:	0003      	mov r0,0x0
     c06:	b400      	beq b6e <_e_get_global_address+0x76>
     c08:	3c8a      	eor r1,r7,r1
     c0a:	e803      	mov r7,0x40
     c0c:	0003      	mov r0,0x0
     c0e:	b800      	beq b7e <_e_get_global_address+0x86>
     c10:	3c8a      	eor r1,r7,r1
     c12:	1a03      	mov r0,0xd0
     c14:	0003      	mov r0,0x0
     c16:	bc00      	beq b8e <_e_get_global_address+0x96>
     c18:	3c8a      	eor r1,r7,r1
     c1a:	4403      	mov r2,0x20
     c1c:	0004      	ldrb r0,[r0]
     c1e:	8400      	beq b26 <_e_get_global_address+0x2e>
     c20:	3c8c fb03 	ldrb r57,[r55],-0x19
     c24:	0003      	mov r0,0x0
     c26:	8800      	beq b36 <_e_get_global_address+0x3e>
     c28:	3c8c ff03 	ldrb r57,[r63],-0x19
     c2c:	0002      	moveq r0,r0
     c2e:	8000      	beq b2e <_e_get_global_address+0x36>
     c30:	3c8e      	asr r1,r7,0x4
     c32:	af03      	mov r5,0x78
     c34:	0002      	moveq r0,r0
     c36:	8400      	beq b3e <_e_get_global_address+0x46>
     c38:	3c8e      	asr r1,r7,0x4
     c3a:	ee03      	mov r7,0x70
     c3c:	0002      	moveq r0,r0
     c3e:	8c00      	beq b56 <_e_get_global_address+0x5e>
     c40:	3c8e      	asr r1,r7,0x4
     c42:	0400      	beq c4a <_e_reg_read+0x46>
     c44:	0504      	ldrb r0,[r1,0x2]
     c46:	0794      	strb r0,[r1,0x7]
     c48:	0000      	beq c48 <_e_reg_read+0x44>
     c4a:	0404      	ldrb r0,[r1]
     c4c:	4e07      	fadd r2,r3,r4
     c4e:	0007      	fadd r0,r0,r0
     c50:	0400      	beq c58 <_e_reg_read+0x54>
     c52:	0704      	ldrb r0,[r1,0x6]
     c54:	0753 0000 	*unknown*
     c58:	0402      	moveq r0,r1
     c5a:	3703      	mov r1,0xb8
     c5c:	0190      	blte c5e <_e_reg_read+0x5a>
     c5e:	0000      	beq c5e <_e_reg_read+0x5a>
     c60:	8e03      	mov r4,0x70
     c62:	0000      	beq c62 <_e_reg_read+0x5e>
     c64:	0000      	beq c64 <_e_reg_read+0x60>
     c66:	9603      	mov r4,0xb0
     c68:	0000      	beq c68 <_e_reg_read+0x64>
     c6a:	0100      	beq c6c <_e_reg_read+0x68>
     c6c:	0500      	beq c76 <_e_reg_read+0x72>
     c6e:	0158 0000 	bltu c70 <_e_reg_read+0x6c>
     c72:	3a03      	mov r1,0xd0
     c74:	017b 0000 	*unknown*
     c78:	ae06      	lsr r5,r3,0x10
     c7a:	0006      	lsr r0,r0,0x0
     c7c:	0100      	beq c7e <_e_reg_read+0x7a>
     c7e:	c31d 0001 	*unknown*
     c82:	9800      	beq bb2 <_e_dma_busy+0x1a>
     c84:	000b 6a00 	*unknown*
     c88:	0000      	beq c88 <_e_get_coreid>
     c8a:	0100      	beq c8c <_e_get_coreid+0x4>
     c8c:	c39c 0001 	strb r6,[r0,+0xf]
     c90:	0700      	beq c9e <_e_get_coreid+0x16>
     c92:	0132 0000 	*unknown*
     c96:	1d01      	ldrb r0,[r7,r2]
     c98:	0190      	blte c9a <_e_get_coreid+0x12>
     c9a:	0000      	beq c9a <_e_get_coreid+0x12>
     c9c:	9102      	movts iab,r4
     c9e:	0074      	strd r0,[r0]
     ca0:	0408 6905 	beq d216a8 <__PROG_SIZE_FOR_CORE_+0xc216a8>
     ca4:	746e      	asr r3,r5,0x3
     ca6:	0000      	beq ca6 <___do_global_ctors_aux+0x6>
     ca8:	02cf 0000 	*unknown*
     cac:	0004      	ldrb r0,[r0]
     cae:	03fc 0000 	strd r0,[r0,+0x7]
     cb2:	0104      	ldrb r0,[r0,0x2]
     cb4:	017b 0000 	*unknown*
     cb8:	b901      	ldrb r5,[r6,r2]
     cba:	0006      	lsr r0,r0,0x0
     cbc:	fc00      	beq cb4 <___do_global_ctors_aux+0x14>
     cbe:	0000      	beq cbe <___do_global_ctors_aux+0x1e>
     cc0:	0400      	beq cc8 <___do_global_ctors_aux+0x28>
     cc2:	000c 8200 	ldrb r32,[r0],+0x0
     cc6:	0000      	beq cc6 <___do_global_ctors_aux+0x26>
     cc8:	bd00      	beq c42 <_e_reg_read+0x3e>
     cca:	0004      	ldrb r0,[r0]
     ccc:	0200      	beq cd0 <___do_global_ctors_aux+0x30>
     cce:	0204      	ldrb r0,[r0,0x4]
     cd0:	6666      	lsr r3,r1,0x13
     cd2:	0001      	ldrb r0,[r0,r0]
     cd4:	0300      	beq cda <___do_global_ctors_aux+0x3a>
     cd6:	04a7      	fmul r0,r1,r1
     cd8:	0000      	beq cd8 <___do_global_ctors_aux+0x38>
     cda:	8080      	blt bda <_e_dma_busy+0x42>
     cdc:	033c 04bf 	strh r0,[r8,+0x5fe]
     ce0:	0000      	beq ce0 <___do_global_ctors_aux+0x40>
     ce2:	8880      	blt bf2 <_e_dma_busy+0x5a>
     ce4:	033c 033c 	strh r0,[r0],-0x1e6
     ce8:	0000      	beq ce8 <fini+0x4>
     cea:	8884      	ldrb r4,[r2,0x1]
     cec:	033c 0262 	strh r0,[r0],+0x316
     cf0:	0000      	beq cf0 <fini+0xc>
     cf2:	8888 033c 	blt 68602 <__stack_start_+0x60612>
     cf6:	0390      	blte cfc <fini+0x18>
     cf8:	0000      	beq cf8 <fini+0x14>
     cfa:	888c 033c 	ldrb r4,[r2],-0x1e1
     cfe:	0241      	ldr r0,[r0,r4]
     d00:	0000      	beq d00 <___CTOR_LIST__>
     d02:	8894      	strb r4,[r2,0x1]
     d04:	033c 0259 	strh r0,[r0],+0x2ce
     d08:	0000      	beq d08 <___DTOR_LIST__>
     d0a:	8898 033c 	blte 6861a <__stack_start_+0x6062a>
     d0e:	024a      	lsr r0,r0,r4
     d10:	0000      	beq d10 <___JCR_END__>
     d12:	889c 033c 	strb r4,[r2],-0x1e1
     d16:	0373 0000 	*unknown*
     d1a:	88a0      	bbeq c2a <_e_reg_read+0x26>
     d1c:	033c 0282 	strh r0,[r0],+0x416
     d20:	0000      	beq d20 <_dma_data_size>
     d22:	88a4      	ldrh r4,[r2,0x1]
     d24:	033c 0277 	strh r0,[r0],+0x3be
     d28:	0000      	beq d28 <_dma_data_size+0x8>
     d2a:	88a8 033c 	bbeq 6863a <__stack_start_+0x6064a>
     d2e:	03c8 0000 	bblt d34 <_dma_data_size+0x14>
     d32:	88ac 033c 	ldrh r4,[r2],-0x1e1
     d36:	030d 0000 	ldrb r0,[r0],+r6
     d3a:	88b0      	bbne c4a <_e_reg_read+0x46>
     d3c:	033c 026b 	strh r0,[r0],+0x35e
     d40:	0000      	beq d40 <___TMC_END__>
     d42:	88b4      	strh r4,[r2,0x1]
     d44:	033c 041c 	strh r0,[r8,+0xe6]
     d48:	0000      	beq d48 <___bss_start>
     d4a:	88b8 033c 	bbne 6865a <__stack_start_+0x6066a>
     d4e:	042a      	lsl r0,r1,r0
     d50:	0000      	beq d50 <_end>
     d52:	88bc 033c 	strh r4,[r2],-0x1e1
     d56:	0465      	ldrd r0,[r1],r0
     d58:	0000      	beq d58 <_end+0x8>
     d5a:	88c0      	bblt c6a <_e_reg_read+0x66>
     d5c:	033c 028e 	strh r0,[r0],+0x476
     d60:	0000      	beq d60 <_end+0x10>
     d62:	88c8 033c 	bblt 68672 <__stack_start_+0x60682>
     d66:	032b 0000 	*unknown*
     d6a:	8a80      	blt c7e <_e_reg_read+0x7a>
     d6c:	033c 0473 	strh r0,[r8,+0x39e]
     d70:	0000      	beq d70 <_end+0x20>
     d72:	8a84      	ldrb r4,[r2,0x5]
     d74:	033c 02cc 	strh r0,[r0],+0x666
     d78:	0000      	beq d78 <_end+0x28>
     d7a:	8a88 033c 	blt 6868e <__stack_start_+0x6069e>
     d7e:	0350      	bltu d84 <_end+0x34>
     d80:	0000      	beq d80 <_end+0x30>
     d82:	8a8c 033c 	ldrb r4,[r2],-0x1e5
     d86:	0484      	ldrb r0,[r1,0x1]
     d88:	0000      	beq d88 <_end+0x38>
     d8a:	8a90      	blte c9e <_e_get_coreid+0x16>
     d8c:	033c 03a2 	strh r0,[r0],-0x516
     d90:	0000      	beq d90 <_end+0x40>
     d92:	8a94      	strb r4,[r2,0x5]
     d94:	033c 03b5 	strh r0,[r0],-0x5ae
     d98:	0000      	beq d98 <_end+0x48>
     d9a:	8a98 033c 	blte 686ae <__stack_start_+0x606be>
     d9e:	0454      	str r0,[r1]
     da0:	0000      	beq da0 <_end+0x50>
     da2:	8a9c 033c 	strb r4,[r2],-0x1e5
     da6:	0496      	lsl r0,r1,0x4
     da8:	0000      	beq da8 <_end+0x58>
     daa:	8aa0      	bbeq cbe <___do_global_ctors_aux+0x1e>
     dac:	033c 0362 	strh r0,[r0],-0x316
     db0:	0000      	beq db0 <_end+0x60>
     db2:	8aa4      	ldrh r4,[r2,0x5]
     db4:	033c 040c 	strh r0,[r8,+0x66]
     db8:	0000      	beq db8 <_end+0x68>
     dba:	8aa8 033c 	bbeq 686ce <__stack_start_+0x606de>
     dbe:	02dc 0000 	str r0,[r0,+0x5]
     dc2:	8aac 033c 	ldrh r4,[r2],-0x1e5
     dc6:	037e 0000 	*unknown*
     dca:	8ab0      	bbne cde <___do_global_ctors_aux+0x3e>
     dcc:	033c 03d5 	strh r0,[r0],-0x6ae
     dd0:	0000      	beq dd0 <_end+0x80>
     dd2:	8ab4      	strh r4,[r2,0x5]
     dd4:	033c 03e8 	strh r0,[r0],-0x746
     dd8:	0000      	beq dd8 <_end+0x88>
     dda:	8ab8 033c 	bbne 686ee <__stack_start_+0x606fe>
     dde:	031a      	add r0,r0,r6
     de0:	0000      	beq de0 <_end+0x90>
     de2:	8abc 033c 	strh r4,[r2],-0x1e5
     de6:	0444      	ldr r0,[r1]
     de8:	0000      	beq de8 <_end+0x98>
     dea:	8c84      	ldrb r4,[r3,0x1]
     dec:	033c 03fb 	strh r0,[r0],-0x7de
     df0:	0000      	beq df0 <_end+0xa0>
     df2:	8c88 033c 	blt 6870a <__stack_start_+0x6071a>
     df6:	02ff 0000 	*unknown*
     dfa:	8e80      	blt d16 <___JCR_END__+0x6>
     dfc:	033c 02af 	strh r0,[r0],+0x57e
     e00:	0000      	beq e00 <_end+0xb0>
     e02:	8e84      	ldrb r4,[r3,0x5]
     e04:	033c 02ee 	strh r0,[r0],+0x776
     e08:	0000      	beq e08 <_end+0xb8>
     e0a:	8e8c 003c 	ldrb r4,[r3,+0x1e5]
     e0e:	f704      	ldrb r7,[r5,0x6]
     e10:	0005      	ldrb r0,[r0],r0
     e12:	0200      	beq e16 <_end+0xc6>
     e14:	2595      	strb r1,[r1],r3
     e16:	0000      	beq e16 <_end+0xc6>
     e18:	0400      	beq e20 <_end+0xd0>
     e1a:	04ea      	asr r0,r1,r1
     e1c:	0000      	beq e1c <_end+0xcc>
     e1e:	2003      	mov r1,0x0
     e20:	017c 0000 	strd r0,[r0,+0x2]
     e24:	0405      	ldrb r0,[r1],r0
     e26:	5307      	fadd r2,r4,r6
     e28:	0007      	fadd r0,r0,r0
     e2a:	0200      	beq e2e <_end+0xde>
     e2c:	0304      	ldrb r0,[r0,0x6]
     e2e:	bc2f 0001 	*unknown*
     e32:	0300      	beq e38 <_end+0xe8>
     e34:	0508 0000 	beq e3e <_end+0xee>
     e38:	0300      	beq e3e <_end+0xee>
     e3a:	0518 0000 	bne e44 <_end+0xf4>
     e3e:	0301      	ldrb r0,[r0,r6]
     e40:	04fd 0000 	strd r0,[r1],+r1
     e44:	0302 0578 	*unknown*
     e48:	0000      	beq e48 <_end+0xf8>
     e4a:	0303      	mov r0,0x18
     e4c:	059d 0000 	strb r0,[r1],+r3
     e50:	0304      	ldrb r0,[r0,0x6]
     e52:	0623      	mov r0,0x31
     e54:	0000      	beq e54 <_end+0x104>
     e56:	0305      	ldrb r0,[r0],r6
     e58:	04d7      	float r0,r1
     e5a:	0000      	beq e5a <_end+0x10a>
     e5c:	0306      	lsr r0,r0,0x18
     e5e:	055f 0000 	*unknown*
     e62:	0007      	fadd r0,r0,r0
     e64:	5304      	ldrb r2,[r4,0x6]
     e66:	0005      	ldrb r0,[r0],r0
     e68:	0300      	beq e6e <_end+0x11e>
     e6a:	8338 0001 	bgteu 1170 <__HALF_BANK_SIZE_+0x170>
     e6e:	0200      	beq e72 <_end+0x122>
     e70:	0304      	ldrb r0,[r0,0x6]
     e72:	dc3a      	sub r6,r7,r0
     e74:	0001      	ldrb r0,[r0,r0]
     e76:	0300      	beq e7c <_end+0x12c>
     e78:	05d0      	bblte e82 <_end+0x132>
     e7a:	0000      	beq e7a <_end+0x12a>
     e7c:	0300      	beq e82 <_end+0x132>
     e7e:	0531      	strh r0,[r1,r2]
     e80:	0000      	beq e80 <_end+0x130>
     e82:	0001      	ldrb r0,[r0,r0]
     e84:	a804      	ldrb r5,[r2]
     e86:	0005      	ldrb r0,[r0],r0
     e88:	0300      	beq e8e <_end+0x13e>
     e8a:	c73d 0001 	*unknown*
     e8e:	0600      	beq e9a <_end+0x14a>
     e90:	0328 683f 	bgtu d08c96 <__PROG_SIZE_FOR_CORE_+0xc08c96>
     e94:	0002      	moveq r0,r0
     e96:	0700      	beq ea4 <_end+0x154>
     e98:	04f5      	strd r0,[r1],r1
     e9a:	0000      	beq e9a <_end+0x14a>
     e9c:	4003      	mov r2,0x0
     e9e:	01bc 0000 	strh r0,[r0,+0x3]
     ea2:	0700      	beq eb0 <_end+0x160>
     ea4:	04e1      	ldrd r0,[r1,r1]
     ea6:	0000      	beq ea6 <_end+0x156>
     ea8:	4103      	mov r2,0x8
     eaa:	01dc 0000 	str r0,[r0,+0x3]
     eae:	0704      	ldrb r0,[r1,0x6]
     eb0:	050f 0000 	*unknown*
     eb4:	4203      	mov r2,0x10
     eb6:	0171      	strd r0,[r0,r2]
     eb8:	0000      	beq eb8 <_end+0x168>
     eba:	0708 05b5 	beq b78c8 <__stack_start_+0xaf8d8>
     ebe:	0000      	beq ebe <_end+0x16e>
     ec0:	4303      	mov r2,0x18
     ec2:	017c 0000 	strd r0,[r0,+0x2]
     ec6:	070c 0527 	ldrb r0,[r9,-0x13e]
     eca:	0000      	beq eca <_end+0x17a>
     ecc:	4403      	mov r2,0x20
     ece:	017c 0000 	strd r0,[r0,+0x2]
     ed2:	0710      	bne ee0 <_end+0x190>
     ed4:	05da      	and r0,r1,r3
     ed6:	0000      	beq ed6 <_end+0x186>
     ed8:	4503      	mov r2,0x28
     eda:	017c 0000 	strd r0,[r0,+0x2]
     ede:	0714      	strb r0,[r1,0x6]
     ee0:	0618 0000 	bne eec <_end+0x19c>
     ee4:	4603      	mov r2,0x30
     ee6:	017c 0000 	strd r0,[r0,+0x2]
     eea:	0718 054a 	bne aa2f8 <__stack_start_+0xa2308>
     eee:	0000      	beq eee <_end+0x19e>
     ef0:	4703      	mov r2,0x38
     ef2:	017c 0000 	strd r0,[r0,+0x2]
     ef6:	071c 05c7 	strb r0,[r9,-0x63e]
     efa:	0000      	beq efa <_end+0x1aa>
     efc:	4803      	mov r2,0x40
     efe:	017c 0000 	strd r0,[r0,+0x2]
     f02:	0720      	bgtu f10 <_end+0x1c0>
     f04:	05e5      	ldrd r0,[r1],r3
     f06:	0000      	beq f06 <_end+0x1b6>
     f08:	4903      	mov r2,0x48
     f0a:	017c 0000 	strd r0,[r0,+0x2]
     f0e:	0024      	ldrh r0,[r0]
     f10:	0704      	ldrb r0,[r1,0x6]
     f12:	0006      	lsr r0,r0,0x0
     f14:	0300      	beq f1a <_end+0x1ca>
     f16:	e74a      	lsr r7,r1,r6
     f18:	0001      	ldrb r0,[r0,r0]
     f1a:	0800      	beq f2a <_end+0x1da>
     f1c:	06ca      	lsr r0,r1,r5
     f1e:	0000      	beq f1e <_end+0x1ce>
     f20:	1d01      	ldrb r0,[r7,r2]
     f22:	017c 0000 	strd r0,[r0,+0x2]
     f26:	0c04      	ldrb r0,[r3]
     f28:	0000      	beq f28 <_end+0x1d8>
     f2a:	0082      	movlt r0,r0
     f2c:	0000      	beq f2c <_end+0x1dc>
     f2e:	9c01      	ldrb r4,[r7,r0]
     f30:	02b7      	fmadd r0,r0,r5
     f32:	0000      	beq f32 <_end+0x1e2>
     f34:	8409 0005 	*unknown*
     f38:	0100      	beq f3a <_end+0x1ea>
     f3a:	661d 0001 	*unknown*
     f3e:	0200      	beq f42 <_end+0x1f2>
     f40:	6c91      	strb r3,[r3,r1]
     f42:	bf0a      	eor r5,r7,r6
     f44:	0005      	ldrb r0,[r0],r0
     f46:	0100      	beq f48 <_end+0x1f8>
     f48:	b71f 0002 	*unknown*
     f4c:	0200      	beq f50 <_end+0x200>
     f4e:	7091      	strb r3,[r4,r1]
     f50:	760a      	eor r3,r5,r4
     f52:	0000      	beq f52 <_end+0x202>
     f54:	0100      	beq f56 <_end+0x206>
     f56:	bc20      	bgtu ece <_end+0x17e>
     f58:	0002      	moveq r0,r0
     f5a:	0200      	beq f5e <_end+0x20e>
     f5c:	7491      	strb r3,[r5,r1]
     f5e:	0b00      	beq f74 <_end+0x224>
     f60:	017c 0000 	strd r0,[r0,+0x2]
     f64:	040c 017c 	ldrb r0,[r1,-0x3e0]
     f68:	0000      	beq f68 <_end+0x218>
     f6a:	3b0d 0005 	*unknown*
     f6e:	0300      	beq f74 <_end+0x224>
     f70:	cd51      	str r6,[r3,r2]
     f72:	0002      	moveq r0,r0
     f74:	0e00      	beq f90 <_end+0x240>
     f76:	0268 0000 	bgt f7a <_end+0x22a>
     f7a:	5700      	beq 1028 <__HALF_BANK_SIZE_+0x28>
     f7c:	0000      	beq f7c <_end+0x22c>
     f7e:	0400      	beq f86 <_end+0x236>
     f80:	bc00      	beq ef8 <_end+0x1a8>
     f82:	0004      	ldrb r0,[r0]
     f84:	0400      	beq f8c <_end+0x23c>
     f86:	7b01      	ldrb r3,[r6,r6]
     f88:	0001      	ldrb r0,[r0,r0]
     f8a:	0100      	beq f8c <_end+0x23c>
     f8c:	06f0      	bl f98 <_end+0x248>
     f8e:	0000      	beq f8e <_end+0x23e>
     f90:	00fc 0000 	strd r0,[r0,+0x1]
     f94:	0c88 0000 	blt fac <_end+0x25c>
     f98:	0018 0000 	bne f98 <_end+0x248>
     f9c:	0563      	mov r0,0x2b
     f9e:	0000      	beq f9e <_end+0x24e>
     fa0:	ea02 0004 	*unknown*
     fa4:	0200      	beq fa8 <_end+0x258>
     fa6:	3020      	bgtu 1006 <__HALF_BANK_SIZE_+0x6>
     fa8:	0000      	beq fa8 <_end+0x258>
     faa:	0300      	beq fb0 <_end+0x260>
     fac:	0704      	ldrb r0,[r1,0x6]
     fae:	0753 0000 	*unknown*
     fb2:	e304      	ldrb r7,[r0,0x6]
     fb4:	0006      	lsr r0,r0,0x0
     fb6:	0100      	beq fb8 <_end+0x268>
     fb8:	251d 0000 	strb r1,[r1],+r2
     fbc:	8800      	beq ecc <_end+0x17c>
     fbe:	000c 1800 	ldrb r0,[r48,+0x0]
     fc2:	0000      	beq fc2 <_end+0x272>
     fc4:	0100      	beq fc6 <_end+0x276>
     fc6:	059c 06d5 	strb r0,[r9],+0x6ab
     fca:	0000      	beq fca <_end+0x27a>
     fcc:	1f01      	ldrb r0,[r7,r6]
     fce:	0030      	bgteu fce <_end+0x27e>
     fd0:	0000      	beq fd0 <_end+0x280>
     fd2:	5001      	ldrb r2,[r4,r0]
     fd4:	0000      	beq fd4 <_end+0x284>
     fd6:	08a6      	lsr r0,r2,0x5
     fd8:	0000      	beq fd8 <_end+0x288>
     fda:	0004      	ldrb r0,[r0]
     fdc:	0511      	strb r0,[r1,r2]
     fde:	0000      	beq fde <_end+0x28e>
     fe0:	0104      	ldrb r0,[r0,0x2]
     fe2:	0aad 0000 	ldrh r0,[r2],+r5
     fe6:	2601      	ldrb r1,[r1,r4]
     fe8:	0009 8000 	ldrb r32,[r0,+r0]
     fec:	0000      	beq fec <_end+0x29c>
     fee:	3a00      	beq 1062 <__HALF_BANK_SIZE_+0x62>
     ff0:	0000      	beq ff0 <_end+0x2a0>
     ff2:	d600      	beq f9e <_end+0x24e>
     ff4:	0005      	ldrb r0,[r0],r0
     ff6:	0200      	beq ffa <_end+0x2aa>
     ff8:	0704      	ldrb r0,[r1,0x6]
     ffa:	074e      	asr r0,r1,0x1a
     ffc:	0000      	beq ffc <_end+0x2ac>
     ffe:	0402      	moveq r0,r1
    1000:	5307      	fadd r2,r4,r6
    1002:	0007      	fadd r0,r0,r0
    1004:	0200      	beq 1008 <__HALF_BANK_SIZE_+0x8>
    1006:	0601      	ldrb r0,[r1,r4]
    1008:	097c 0000 	strd r0,[r2,+0x2]
    100c:	0102      	movts config,r0
    100e:	7a08 0009 	beq 2302 <__HALF_BANK_SIZE_+0x1302>
    1012:	0200      	beq 1016 <__HALF_BANK_SIZE_+0x16>
    1014:	0502      	movts status,r0
    1016:	0996      	lsl r0,r2,0xc
    1018:	0000      	beq 1018 <__HALF_BANK_SIZE_+0x18>
    101a:	0202 8807 	*unknown*
    101e:	0008 0300 	beq 6101e <__stack_start_+0x5902e>
    1022:	0504      	ldrb r0,[r1,0x2]
    1024:	6e69 0074 	*unknown*
    1028:	0802      	moveq r0,r2
    102a:	8f05      	ldrb r4,[r3],r6
    102c:	0007      	fadd r0,r0,r0
    102e:	0200      	beq 1032 <__HALF_BANK_SIZE_+0x32>
    1030:	0708 0749 	beq ea23e <__stack_start_+0xe224e>
    1034:	0000      	beq 1034 <__HALF_BANK_SIZE_+0x34>
    1036:	6804      	ldrb r3,[r2]
    1038:	0009 0200 	ldrb r0,[r0,+r32]
    103c:	4b07      	fadd r2,r2,r6
    103e:	0000      	beq 103e <__HALF_BANK_SIZE_+0x3e>
    1040:	0200      	beq 1044 <__HALF_BANK_SIZE_+0x44>
    1042:	0504      	ldrb r0,[r1,0x2]
    1044:	0794      	strb r0,[r1,0x7]
    1046:	0000      	beq 1046 <__HALF_BANK_SIZE_+0x46>
    1048:	4104      	ldrb r2,[r0,0x2]
    104a:	000a      	eor r0,r0,r0
    104c:	0300      	beq 1052 <__HALF_BANK_SIZE_+0x52>
    104e:	6b2c 0000 	ldrh r3,[r2,+0x6]
    1052:	0500      	beq 105c <__HALF_BANK_SIZE_+0x5c>
    1054:	08cb 0000 	*unknown*
    1058:	6104      	ldrb r3,[r0,0x2]
    105a:	2801      	ldrb r1,[r2,r0]
    105c:	0000      	beq 105c <__HALF_BANK_SIZE_+0x5c>
    105e:	0600      	beq 106a <__HALF_BANK_SIZE_+0x6a>
    1060:	0304      	ldrb r0,[r0,0x6]
    1062:	a846      	lsr r5,r2,0x2
    1064:	0000      	beq 1064 <__HALF_BANK_SIZE_+0x64>
    1066:	0700      	beq 1074 <__HALF_BANK_SIZE_+0x74>
    1068:	08c5      	ldr r0,[r2],r1
    106a:	0000      	beq 106a <__HALF_BANK_SIZE_+0x6a>
    106c:	4803      	mov r2,0x40
    106e:	007d 0000 	strd r0,[r0],+r0
    1072:	6407      	fadd r3,r1,r0
    1074:	0008 0300 	beq 61074 <__stack_start_+0x59084>
    1078:	a849 0000 	ldr r5,[r2,+r0]
    107c:	0000      	beq 107c <__HALF_BANK_SIZE_+0x7c>
    107e:	3608 0000 	beq 10ea <__HALF_BANK_SIZE_+0xea>
    1082:	b800      	beq ff2 <_end+0x2a2>
    1084:	0000      	beq 1084 <__HALF_BANK_SIZE_+0x84>
    1086:	0900      	beq 1098 <__HALF_BANK_SIZE_+0x98>
    1088:	00b8 0000 	bbne 1088 <__HALF_BANK_SIZE_+0x88>
    108c:	0003      	mov r0,0x0
    108e:	0402      	moveq r0,r1
    1090:	4307      	fadd r2,r0,r6
    1092:	0001      	ldrb r0,[r0,r0]
    1094:	0a00      	beq 10a8 <__HALF_BANK_SIZE_+0xa8>
    1096:	0308 e043 	beq ffc0969c <__SHARED_DRAM_+0x71c0969c>
    109a:	0000      	beq 109a <__HALF_BANK_SIZE_+0x9a>
    109c:	0b00      	beq 10b2 <__HALF_BANK_SIZE_+0xb2>
    109e:	0a2b 0000 	*unknown*
    10a2:	4503      	mov r2,0x28
    10a4:	004b 0000 	*unknown*
    10a8:	0b00      	beq 10be <__HALF_BANK_SIZE_+0xbe>
    10aa:	0a33      	sub r0,r2,-4
    10ac:	0000      	beq 10ac <__HALF_BANK_SIZE_+0xac>
    10ae:	4a03      	mov r2,0x50
    10b0:	0089 0000 	ldrb r0,[r0,+r1]
    10b4:	0004      	ldrb r0,[r0]
    10b6:	be04      	ldrb r5,[r7,0x4]
    10b8:	0009 0300 	ldrb r0,[r0,+r48]
    10bc:	bf4b 0000 	*unknown*
    10c0:	0400      	beq 10c8 <__HALF_BANK_SIZE_+0xc8>
    10c2:	083c 0000 	strh r0,[r2]
    10c6:	4f03      	mov r2,0x78
    10c8:	0060      	bgt 10c8 <__HALF_BANK_SIZE_+0xc8>
    10ca:	0000      	beq 10ca <__HALF_BANK_SIZE_+0xca>
    10cc:	040c 7304 	ldrb r24,[r33],-0x20
    10d0:	000a      	eor r0,r0,r0
    10d2:	0500      	beq 10dc <__HALF_BANK_SIZE_+0xdc>
    10d4:	2115      	strb r1,[r0],r2
    10d6:	0000      	beq 10d6 <__HALF_BANK_SIZE_+0xd6>
    10d8:	0d00      	beq 10f2 <__HALF_BANK_SIZE_+0xf2>
    10da:	084d 0000 	ldr r0,[r2],+r0
    10de:	0520      	bgtu 10e8 <__HALF_BANK_SIZE_+0xe8>
    10e0:	562c 0001 	ldrh r2,[r5,+0xc]
    10e4:	0b00      	beq 10fa <__HALF_BANK_SIZE_+0xfa>
    10e6:	09df 0000 	*unknown*
    10ea:	2e05      	ldrb r1,[r3],r4
    10ec:	0156      	lsl r0,r0,0xa
    10ee:	0000      	beq 10ee <__HALF_BANK_SIZE_+0xee>
    10f0:	0e00      	beq 110c <__HALF_BANK_SIZE_+0x10c>
    10f2:	6b5f 0500 	*unknown*
    10f6:	4b2f 0000 	*unknown*
    10fa:	0400      	beq 1102 <__HALF_BANK_SIZE_+0x102>
    10fc:	160b 000a 	*unknown*
    1100:	0500      	beq 110a <__HALF_BANK_SIZE_+0x10a>
    1102:	4b2f 0000 	*unknown*
    1106:	0800      	beq 1116 <__HALF_BANK_SIZE_+0x116>
    1108:	360b 0008 	*unknown*
    110c:	0500      	beq 1116 <__HALF_BANK_SIZE_+0x116>
    110e:	4b2f 0000 	*unknown*
    1112:	0c00      	beq 112a <__HALF_BANK_SIZE_+0x12a>
    1114:	f00b 000a 	*unknown*
    1118:	0500      	beq 1122 <__HALF_BANK_SIZE_+0x122>
    111a:	4b2f 0000 	*unknown*
    111e:	1000      	beq 113e <__HALF_BANK_SIZE_+0x13e>
    1120:	5f0e      	asr r2,r7,0x18
    1122:	0078 3005 	bgte 601b22 <__PROG_SIZE_FOR_CORE_+0x501b22>
    1126:	015c 0000 	str r0,[r0,+0x2]
    112a:	0018 040f 	bne 82f2a <__stack_start_+0x7af3a>
    112e:	0103      	mov r0,0x8
    1130:	0000      	beq 1130 <__HALF_BANK_SIZE_+0x130>
    1132:	f808 0000 	beq 1322 <__HALF_BANK_SIZE_+0x322>
    1136:	6c00      	beq 120e <__HALF_BANK_SIZE_+0x20e>
    1138:	0001      	ldrb r0,[r0,r0]
    113a:	0900      	beq 114c <__HALF_BANK_SIZE_+0x14c>
    113c:	00b8 0000 	bbne 113c <__HALF_BANK_SIZE_+0x13c>
    1140:	0000      	beq 1140 <__HALF_BANK_SIZE_+0x140>
    1142:	5f0d 0008 	*unknown*
    1146:	2800      	beq 1196 <__HALF_BANK_SIZE_+0x196>
    1148:	3405      	ldrb r1,[r5],r0
    114a:	01e5      	ldrd r0,[r0],r3
    114c:	0000      	beq 114c <__HALF_BANK_SIZE_+0x14c>
    114e:	860b 0007 	*unknown*
    1152:	0500      	beq 115c <__HALF_BANK_SIZE_+0x15c>
    1154:	4b36      	lsl r2,r2,0x19
    1156:	0000      	beq 1156 <__HALF_BANK_SIZE_+0x156>
    1158:	0000      	beq 1158 <__HALF_BANK_SIZE_+0x158>
    115a:	490b 000a 	*unknown*
    115e:	0500      	beq 1168 <__HALF_BANK_SIZE_+0x168>
    1160:	4b37      	fmadd r2,r2,r6
    1162:	0000      	beq 1162 <__HALF_BANK_SIZE_+0x162>
    1164:	0400      	beq 116c <__HALF_BANK_SIZE_+0x16c>
    1166:	a90b 0007 	*unknown*
    116a:	0500      	beq 1174 <__HALF_BANK_SIZE_+0x174>
    116c:	4b38 0000 	bgteu 1202 <__HALF_BANK_SIZE_+0x202>
    1170:	0800      	beq 1180 <__HALF_BANK_SIZE_+0x180>
    1172:	690b 000b 	*unknown*
    1176:	0500      	beq 1180 <__HALF_BANK_SIZE_+0x180>
    1178:	4b39 0000 	strh r2,[r2,+r6]
    117c:	0c00      	beq 1194 <__HALF_BANK_SIZE_+0x194>
    117e:	f10b 0008 	*unknown*
    1182:	0500      	beq 118c <__HALF_BANK_SIZE_+0x18c>
    1184:	4b3a      	sub r2,r2,r6
    1186:	0000      	beq 1186 <__HALF_BANK_SIZE_+0x186>
    1188:	1000      	beq 11a8 <__HALF_BANK_SIZE_+0x1a8>
    118a:	e00b 0008 	*unknown*
    118e:	0500      	beq 1198 <__HALF_BANK_SIZE_+0x198>
    1190:	4b3b 0000 	sub r2,r2,6
    1194:	1400      	beq 11bc <__HALF_BANK_SIZE_+0x1bc>
    1196:	f50b 000a 	*unknown*
    119a:	0500      	beq 11a4 <__HALF_BANK_SIZE_+0x1a4>
    119c:	4b3c 0000 	strh r2,[r2,+0x6]
    11a0:	1800      	beq 11d0 <__HALF_BANK_SIZE_+0x1d0>
    11a2:	a00b 0009 	*unknown*
    11a6:	0500      	beq 11b0 <__HALF_BANK_SIZE_+0x1b0>
    11a8:	4b3d 0000 	strh r2,[r2],+r6
    11ac:	1c00      	beq 11e4 <__HALF_BANK_SIZE_+0x1e4>
    11ae:	300b 000b 	*unknown*
    11b2:	0500      	beq 11bc <__HALF_BANK_SIZE_+0x1bc>
    11b4:	4b3e 0000 	*unknown*
    11b8:	2000      	beq 11f8 <__HALF_BANK_SIZE_+0x1f8>
    11ba:	1000      	beq 11da <__HALF_BANK_SIZE_+0x1da>
    11bc:	07b8 0000 	bbne 11ca <__HALF_BANK_SIZE_+0x1ca>
    11c0:	0108 4705 	beq 8e1bc2 <__PROG_SIZE_FOR_CORE_+0x7e1bc2>
    11c4:	0225      	ldrh r0,[r0],r4
    11c6:	0000      	beq 11c6 <__HALF_BANK_SIZE_+0x1c6>
    11c8:	290b 0008 	*unknown*
    11cc:	0500      	beq 11d6 <__HALF_BANK_SIZE_+0x1d6>
    11ce:	2548 0002 	blteu 1618 <__HALF_BANK_SIZE_+0x618>
    11d2:	0000      	beq 11d2 <__HALF_BANK_SIZE_+0x1d2>
    11d4:	0a0b 0007 	*unknown*
    11d8:	0500      	beq 11e2 <__HALF_BANK_SIZE_+0x1e2>
    11da:	2549 0002 	*unknown*
    11de:	8000      	beq 10de <__HALF_BANK_SIZE_+0xde>
    11e0:	6511      	strb r3,[r1,r2]
    11e2:	000a      	eor r0,r0,r0
    11e4:	0500      	beq 11ee <__HALF_BANK_SIZE_+0x1ee>
    11e6:	f84b 0000 	*unknown*
    11ea:	0000      	beq 11ea <__HALF_BANK_SIZE_+0x1ea>
    11ec:	1101      	ldrb r0,[r4,r2]
    11ee:	07dd 0000 	str r0,[r1],+r7
    11f2:	4e05      	ldrb r2,[r3],r4
    11f4:	00f8 0000 	bl 11f4 <__HALF_BANK_SIZE_+0x1f4>
    11f8:	0104      	ldrb r0,[r0,0x2]
    11fa:	0800      	beq 120a <__HALF_BANK_SIZE_+0x20a>
    11fc:	00f6      	lsl r0,r0,0x7
    11fe:	0000      	beq 11fe <__HALF_BANK_SIZE_+0x1fe>
    1200:	0235      	strh r0,[r0],r4
    1202:	0000      	beq 1202 <__HALF_BANK_SIZE_+0x202>
    1204:	b809 0000 	ldrb r5,[r6,+r0]
    1208:	1f00      	beq 1246 <__HALF_BANK_SIZE_+0x246>
    120a:	1000      	beq 122a <__HALF_BANK_SIZE_+0x22a>
    120c:	08fa      	orr r0,r2,r1
    120e:	0000      	beq 120e <__HALF_BANK_SIZE_+0x20e>
    1210:	0190      	blte 1212 <__HALF_BANK_SIZE_+0x212>
    1212:	5905      	ldrb r2,[r6],r2
    1214:	0273 0000 	*unknown*
    1218:	df0b 0009 	*unknown*
    121c:	0500      	beq 1226 <__HALF_BANK_SIZE_+0x226>
    121e:	735a      	and r3,r4,r6
    1220:	0002      	moveq r0,r0
    1222:	0000      	beq 1222 <__HALF_BANK_SIZE_+0x222>
    1224:	f70b 0009 	*unknown*
    1228:	0500      	beq 1232 <__HALF_BANK_SIZE_+0x232>
    122a:	4b5b 0000 	*unknown*
    122e:	0400      	beq 1236 <__HALF_BANK_SIZE_+0x236>
    1230:	310b 0008 	*unknown*
    1234:	0500      	beq 123e <__HALF_BANK_SIZE_+0x23e>
    1236:	795d 0002 	*unknown*
    123a:	0800      	beq 124a <__HALF_BANK_SIZE_+0x24a>
    123c:	b80b 0007 	*unknown*
    1240:	0500      	beq 124a <__HALF_BANK_SIZE_+0x24a>
    1242:	e55e 0001 	*unknown*
    1246:	8800      	beq 1156 <__HALF_BANK_SIZE_+0x156>
    1248:	0f00      	beq 1266 <__HALF_BANK_SIZE_+0x266>
    124a:	3504      	ldrb r1,[r5,0x2]
    124c:	0002      	moveq r0,r0
    124e:	0800      	beq 125e <__HALF_BANK_SIZE_+0x25e>
    1250:	0289 0000 	ldrb r0,[r0,+r5]
    1254:	0289 0000 	ldrb r0,[r0,+r5]
    1258:	b809 0000 	ldrb r5,[r6,+r0]
    125c:	1f00      	beq 129a <__HALF_BANK_SIZE_+0x29a>
    125e:	0f00      	beq 127c <__HALF_BANK_SIZE_+0x27c>
    1260:	8f04      	ldrb r4,[r3,0x6]
    1262:	0002      	moveq r0,r0
    1264:	1200      	beq 1288 <__HALF_BANK_SIZE_+0x288>
    1266:	aa0d 0009 	*unknown*
    126a:	0800      	beq 127a <__HALF_BANK_SIZE_+0x27a>
    126c:	6905      	ldrb r3,[r2],r2
    126e:	02b5      	strh r0,[r0],r5
    1270:	0000      	beq 1270 <__HALF_BANK_SIZE_+0x270>
    1272:	a30b 0007 	*unknown*
    1276:	0500      	beq 1280 <__HALF_BANK_SIZE_+0x280>
    1278:	b56a      	asr r5,r5,r2
    127a:	0002      	moveq r0,r0
    127c:	0000      	beq 127c <__HALF_BANK_SIZE_+0x27c>
    127e:	150b 0000 	*unknown*
    1282:	0500      	beq 128c <__HALF_BANK_SIZE_+0x28c>
    1284:	4b6b 0000 	*unknown*
    1288:	0400      	beq 1290 <__HALF_BANK_SIZE_+0x290>
    128a:	0f00      	beq 12a8 <__HALF_BANK_SIZE_+0x2a8>
    128c:	3604      	ldrb r1,[r5,0x4]
    128e:	0000      	beq 128e <__HALF_BANK_SIZE_+0x28e>
    1290:	0d00      	beq 12aa <__HALF_BANK_SIZE_+0x2aa>
    1292:	09c9 0000 	ldr r0,[r2,+r3]
    1296:	0570      	bgte 12a0 <__HALF_BANK_SIZE_+0x2a0>
    1298:	e5a9 0003 	*unknown*
    129c:	0e00      	beq 12b8 <__HALF_BANK_SIZE_+0x2b8>
    129e:	705f 0500 	*unknown*
    12a2:	b5aa      	lsl r5,r5,r3
    12a4:	0002      	moveq r0,r0
    12a6:	0000      	beq 12a6 <__HALF_BANK_SIZE_+0x2a6>
    12a8:	5f0e      	asr r2,r7,0x18
    12aa:	0072      	movgte r0,r0
    12ac:	ab05      	ldrb r5,[r2],r6
    12ae:	004b 0000 	*unknown*
    12b2:	0e04      	ldrb r0,[r3,0x4]
    12b4:	775f 0500 	*unknown*
    12b8:	4bac 0000 	ldrh r2,[r2,+0x7]
    12bc:	0800      	beq 12cc <__HALF_BANK_SIZE_+0x2cc>
    12be:	d60b 0007 	*unknown*
    12c2:	0500      	beq 12cc <__HALF_BANK_SIZE_+0x2cc>
    12c4:	3dad 0000 	ldrh r1,[r7],+r3
    12c8:	0c00      	beq 12e0 <__HALF_BANK_SIZE_+0x2e0>
    12ca:	7b0b 0008 	*unknown*
    12ce:	0500      	beq 12d8 <__HALF_BANK_SIZE_+0x2d8>
    12d0:	3dae      	asr r1,r7,0xd
    12d2:	0000      	beq 12d2 <__HALF_BANK_SIZE_+0x2d2>
    12d4:	0e00      	beq 12f0 <__HALF_BANK_SIZE_+0x2f0>
    12d6:	5f0e      	asr r2,r7,0x18
    12d8:	6662 0500 	*unknown*
    12dc:	90af 0002 	movbeq r4,r4
    12e0:	1000      	beq 1300 <__HALF_BANK_SIZE_+0x300>
    12e2:	600b 0007 	*unknown*
    12e6:	0500      	beq 12f0 <__HALF_BANK_SIZE_+0x2f0>
    12e8:	4bb0      	bbne 137e <__HALF_BANK_SIZE_+0x37e>
    12ea:	0000      	beq 12ea <__HALF_BANK_SIZE_+0x2ea>
    12ec:	1800      	beq 131c <__HALF_BANK_SIZE_+0x31c>
    12ee:	c60b 0007 	*unknown*
    12f2:	0500      	beq 12fc <__HALF_BANK_SIZE_+0x2fc>
    12f4:	f6b7      	fmadd r7,r5,r5
    12f6:	0000      	beq 12f6 <__HALF_BANK_SIZE_+0x2f6>
    12f8:	1c00      	beq 1330 <__HALF_BANK_SIZE_+0x330>
    12fa:	cf0b 0006 	*unknown*
    12fe:	0500      	beq 1308 <__HALF_BANK_SIZE_+0x308>
    1300:	48b9 0005 	*unknown*
    1304:	2000      	beq 1344 <__HALF_BANK_SIZE_+0x344>
    1306:	710b 0005 	*unknown*
    130a:	0500      	beq 1314 <__HALF_BANK_SIZE_+0x314>
    130c:	77bb 0005 	sub r3,r5,47
    1310:	2400      	beq 1358 <__HALF_BANK_SIZE_+0x358>
    1312:	3b0b 000a 	*unknown*
    1316:	0500      	beq 1320 <__HALF_BANK_SIZE_+0x320>
    1318:	9bbd 0005 	*unknown*
    131c:	2800      	beq 136c <__HALF_BANK_SIZE_+0x36c>
    131e:	4a0b 000b 	*unknown*
    1322:	0500      	beq 132c <__HALF_BANK_SIZE_+0x32c>
    1324:	b5be 0005 	*unknown*
    1328:	2c00      	beq 1380 <__HALF_BANK_SIZE_+0x380>
    132a:	5f0e      	asr r2,r7,0x18
    132c:	6275      	strd r3,[r0],r4
    132e:	0500      	beq 1338 <__HALF_BANK_SIZE_+0x338>
    1330:	90c1      	ldr r4,[r4,r1]
    1332:	0002      	moveq r0,r0
    1334:	3000      	beq 1394 <__HALF_BANK_SIZE_+0x394>
    1336:	5f0e      	asr r2,r7,0x18
    1338:	7075      	strd r3,[r4],r0
    133a:	0500      	beq 1344 <__HALF_BANK_SIZE_+0x344>
    133c:	b5c2 0002 	*unknown*
    1340:	3800      	beq 13b0 <__HALF_BANK_SIZE_+0x3b0>
    1342:	5f0e      	asr r2,r7,0x18
    1344:	7275      	strd r3,[r4],r4
    1346:	0500      	beq 1350 <__HALF_BANK_SIZE_+0x350>
    1348:	4bc3      	mov r2,0x5e
    134a:	0000      	beq 134a <__HALF_BANK_SIZE_+0x34a>
    134c:	3c00      	beq 13c4 <__HALF_BANK_SIZE_+0x3c4>
    134e:	9d0b 0007 	*unknown*
    1352:	0500      	beq 135c <__HALF_BANK_SIZE_+0x35c>
    1354:	bbc6      	lsr r5,r6,0x1e
    1356:	0005      	ldrb r0,[r0],r0
    1358:	4000      	beq 13d8 <__HALF_BANK_SIZE_+0x3d8>
    135a:	220b 000b 	*unknown*
    135e:	0500      	beq 1368 <__HALF_BANK_SIZE_+0x368>
    1360:	cbc7      	fmsub r6,r2,r7
    1362:	0005      	ldrb r0,[r0],r0
    1364:	4300      	beq 13ea <__HALF_BANK_SIZE_+0x3ea>
    1366:	5f0e      	asr r2,r7,0x18
    1368:	626c 0500 	ldrd r3,[r8,-0x4]
    136c:	90ca      	lsr r4,r4,r1
    136e:	0002      	moveq r0,r0
    1370:	4800      	beq 1400 <__HALF_BANK_SIZE_+0x400>
    1372:	f10b 0007 	*unknown*
    1376:	0500      	beq 1380 <__HALF_BANK_SIZE_+0x380>
    1378:	4bcd 0000 	ldr r2,[r2],+r7
    137c:	5000      	beq 141c <__HALF_BANK_SIZE_+0x41c>
    137e:	020b 0008 	*unknown*
    1382:	0500      	beq 138c <__HALF_BANK_SIZE_+0x38c>
    1384:	4bce      	asr r2,r2,0x1e
    1386:	0000      	beq 1386 <__HALF_BANK_SIZE_+0x386>
    1388:	5400      	beq 1430 <__HALF_BANK_SIZE_+0x430>
    138a:	790b 000b 	*unknown*
    138e:	0500      	beq 1398 <__HALF_BANK_SIZE_+0x398>
    1390:	03d1      	str r0,[r0,r7]
    1392:	0004      	ldrb r0,[r0]
    1394:	5800      	beq 1444 <__HALF_BANK_SIZE_+0x444>
    1396:	d20b 0008 	*unknown*
    139a:	0500      	beq 13a4 <__HALF_BANK_SIZE_+0x3a4>
    139c:	ebd5      	str r7,[r2],r7
    139e:	0000      	beq 139e <__HALF_BANK_SIZE_+0x39e>
    13a0:	5c00      	beq 1458 <__HALF_BANK_SIZE_+0x458>
    13a2:	d10b 0009 	*unknown*
    13a6:	0500      	beq 13b0 <__HALF_BANK_SIZE_+0x3b0>
    13a8:	e0d7      	float r7,r0
    13aa:	0000      	beq 13aa <__HALF_BANK_SIZE_+0x3aa>
    13ac:	6000      	beq 146c <__HALF_BANK_SIZE_+0x46c>
    13ae:	d80b 0008 	*unknown*
    13b2:	0500      	beq 13bc <__HALF_BANK_SIZE_+0x3bc>
    13b4:	4bd8 0000 	bblte 144a <__HALF_BANK_SIZE_+0x44a>
    13b8:	6800      	beq 1488 <__HALF_BANK_SIZE_+0x488>
    13ba:	1300      	beq 13e0 <__HALF_BANK_SIZE_+0x3e0>
    13bc:	004b 0000 	*unknown*
    13c0:	0403      	mov r0,0x20
    13c2:	0000      	beq 13c2 <__HALF_BANK_SIZE_+0x3c2>
    13c4:	0314      	strb r0,[r0,0x6]
    13c6:	0004      	ldrb r0,[r0]
    13c8:	1400      	beq 13f0 <__HALF_BANK_SIZE_+0x3f0>
    13ca:	00f6      	lsl r0,r0,0x7
    13cc:	0000      	beq 13cc <__HALF_BANK_SIZE_+0x3cc>
    13ce:	3b14      	strb r1,[r6,0x6]
    13d0:	0005      	ldrb r0,[r0],r0
    13d2:	1400      	beq 13fa <__HALF_BANK_SIZE_+0x3fa>
    13d4:	004b 0000 	*unknown*
    13d8:	0f00      	beq 13f6 <__HALF_BANK_SIZE_+0x3f6>
    13da:	0904      	ldrb r0,[r2,0x2]
    13dc:	0004      	ldrb r0,[r0]
    13de:	1500      	beq 1408 <__HALF_BANK_SIZE_+0x408>
    13e0:	0a1e 0000 	*unknown*
    13e4:	0448 4405 	blteu 881dec <__PROG_SIZE_FOR_CORE_+0x781dec>
    13e8:	3b02 0005 	*unknown*
    13ec:	1600      	beq 1418 <__HALF_BANK_SIZE_+0x418>
    13ee:	098f 0000 	*unknown*
    13f2:	4605      	ldrb r2,[r1],r4
    13f4:	4b02 0000 	*unknown*
    13f8:	0000      	beq 13f8 <__HALF_BANK_SIZE_+0x3f8>
    13fa:	e516      	lsl r7,r1,0x8
    13fc:	0007      	fadd r0,r0,r0
    13fe:	0500      	beq 1408 <__HALF_BANK_SIZE_+0x408>
    1400:	024b 0622 	mov r0,0x6212
    1404:	0000      	beq 1404 <__HALF_BANK_SIZE_+0x404>
    1406:	1604      	ldrb r0,[r5,0x4]
    1408:	086b 0000 	*unknown*
    140c:	4b05      	ldrb r2,[r2],r6
    140e:	2202 0006 	*unknown*
    1412:	0800      	beq 1422 <__HALF_BANK_SIZE_+0x422>
    1414:	4516      	lsl r2,r1,0x8
    1416:	0008 0500 	beq a1416 <__stack_start_+0x99426>
    141a:	024b 0622 	mov r0,0x6212
    141e:	0000      	beq 141e <__HALF_BANK_SIZE_+0x41e>
    1420:	160c 09f2 	ldrb r0,[r21,-0x794]
    1424:	0000      	beq 1424 <__HALF_BANK_SIZE_+0x424>
    1426:	4d05      	ldrb r2,[r3],r2
    1428:	4b02 0000 	*unknown*
    142c:	1000      	beq 144c <__HALF_BANK_SIZE_+0x44c>
    142e:	1e16      	lsl r0,r7,0x10
    1430:	0007      	fadd r0,r0,r0
    1432:	0500      	beq 143c <__HALF_BANK_SIZE_+0x43c>
    1434:	024e      	asr r0,r0,0x12
    1436:	0804      	ldrb r0,[r2]
    1438:	0000      	beq 1438 <__HALF_BANK_SIZE_+0x438>
    143a:	1614      	strb r0,[r5,0x4]
    143c:	0a9b 0000 	add r0,r2,5
    1440:	5005      	ldrb r2,[r4],r0
    1442:	4b02 0000 	*unknown*
    1446:	3000      	beq 14a6 <__HALF_BANK_SIZE_+0x4a6>
    1448:	fc16      	lsl r7,r7,0x0
    144a:	0009 0500 	ldrb r0,[r8,+r16]
    144e:	0251      	str r0,[r0,r4]
    1450:	056c 0000 	ldrd r0,[r1,+0x2]
    1454:	1634      	strh r0,[r5,0x4]
    1456:	0902      	movts pc,r0
    1458:	0000      	beq 1458 <__HALF_BANK_SIZE_+0x458>
    145a:	5305      	ldrb r2,[r4],r6
    145c:	4b02 0000 	*unknown*
    1460:	3800      	beq 14d0 <__HALF_BANK_SIZE_+0x4d0>
    1462:	0c16      	lsl r0,r3,0x0
    1464:	000a      	eor r0,r0,r0
    1466:	0500      	beq 1470 <__HALF_BANK_SIZE_+0x470>
    1468:	0255      	str r0,[r0],r4
    146a:	081f 0000 	*unknown*
    146e:	163c 08bd 	strh r0,[r21,+0x5ec]
    1472:	0000      	beq 1472 <__HALF_BANK_SIZE_+0x472>
    1474:	5805      	ldrb r2,[r6],r0
    1476:	5602 0001 	*unknown*
    147a:	4000      	beq 14fa <__HALF_BANK_SIZE_+0x4fa>
    147c:	5516      	lsl r2,r5,0x8
    147e:	0008 0500 	beq a147e <__stack_start_+0x9948e>
    1482:	0259 004b 	*unknown*
    1486:	0000      	beq 1486 <__HALF_BANK_SIZE_+0x486>
    1488:	1644      	ldr r0,[r5,0x4]
    148a:	0b64      	ldrd r0,[r2,0x6]
    148c:	0000      	beq 148c <__HALF_BANK_SIZE_+0x48c>
    148e:	5a05      	ldrb r2,[r6],r4
    1490:	5602 0001 	*unknown*
    1494:	4800      	beq 1524 <__HALF_BANK_SIZE_+0x524>
    1496:	1c16      	lsl r0,r7,0x0
    1498:	0009 0500 	ldrb r0,[r8,+r16]
    149c:	025b 0825 	*unknown*
    14a0:	0000      	beq 14a0 <__HALF_BANK_SIZE_+0x4a0>
    14a2:	164c 0873 	ldr r0,[r21,+0x39c]
    14a6:	0000      	beq 14a6 <__HALF_BANK_SIZE_+0x4a6>
    14a8:	5e05      	ldrb r2,[r7],r4
    14aa:	4b02 0000 	*unknown*
    14ae:	5000      	beq 154e <__HALF_BANK_SIZE_+0x54e>
    14b0:	fa16      	lsl r7,r6,0x10
    14b2:	0007      	fadd r0,r0,r0
    14b4:	0500      	beq 14be <__HALF_BANK_SIZE_+0x4be>
    14b6:	025f 053b 	*unknown*
    14ba:	0000      	beq 14ba <__HALF_BANK_SIZE_+0x4ba>
    14bc:	1654      	str r0,[r5,0x4]
    14be:	0988 0000 	blt 14d0 <__HALF_BANK_SIZE_+0x4d0>
    14c2:	8205      	ldrb r4,[r0],r4
    14c4:	e202 0007 	*unknown*
    14c8:	5800      	beq 1578 <__HALF_BANK_SIZE_+0x578>
    14ca:	fa17      	fsub r7,r6,r4
    14cc:	0008 0500 	beq a14cc <__stack_start_+0x994dc>
    14d0:	0285      	ldrb r0,[r0],r5
    14d2:	0273 0000 	*unknown*
    14d6:	0148 9b17 	blteu ff3642d8 <__SHARED_DRAM_+0x713642d8>
    14da:	0008 0500 	beq a14da <__stack_start_+0x994ea>
    14de:	0286      	lsr r0,r0,0x14
    14e0:	0235      	strh r0,[r0],r4
    14e2:	0000      	beq 14e2 <__HALF_BANK_SIZE_+0x4e2>
    14e4:	0150      	bltu 14e6 <__HALF_BANK_SIZE_+0x4e6>
    14e6:	1817      	fsub r0,r6,r0
    14e8:	000b 0500 	*unknown*
    14ec:	0289 0836 	*unknown*
    14f0:	0000      	beq 14f0 <__HALF_BANK_SIZE_+0x4f0>
    14f2:	02e0      	b 14f6 <__HALF_BANK_SIZE_+0x4f6>
    14f4:	ce17      	fsub r6,r3,r4
    14f6:	0007      	fadd r0,r0,r0
    14f8:	0500      	beq 1502 <__HALF_BANK_SIZE_+0x502>
    14fa:	028e      	asr r0,r0,0x14
    14fc:	05e7      	fix r0,r1
    14fe:	0000      	beq 14fe <__HALF_BANK_SIZE_+0x4fe>
    1500:	02e8 b317 	b ff664304 <__SHARED_DRAM_+0x71664304>
    1504:	0007      	fadd r0,r0,r0
    1506:	0500      	beq 1510 <__HALF_BANK_SIZE_+0x510>
    1508:	028f 0842 	*unknown*
    150c:	0000      	beq 150c <__HALF_BANK_SIZE_+0x50c>
    150e:	02f8 0f00 	bl 1e1512 <__PROG_SIZE_FOR_CORE_+0xe1512>
    1512:	4104      	ldrb r2,[r0,0x2]
    1514:	0005      	ldrb r0,[r0],r0
    1516:	0200      	beq 151a <__HALF_BANK_SIZE_+0x51a>
    1518:	0801      	ldrb r0,[r2,r0]
    151a:	0983      	mov r0,0x4c
    151c:	0000      	beq 151c <__HALF_BANK_SIZE_+0x51c>
    151e:	040f 03e5 	*unknown*
    1522:	0000      	beq 1522 <__HALF_BANK_SIZE_+0x522>
    1524:	4b13      	add r2,r2,-2
    1526:	0000      	beq 1526 <__HALF_BANK_SIZE_+0x526>
    1528:	6c00      	beq 1600 <__HALF_BANK_SIZE_+0x600>
    152a:	0005      	ldrb r0,[r0],r0
    152c:	1400      	beq 1554 <__HALF_BANK_SIZE_+0x554>
    152e:	0403      	mov r0,0x20
    1530:	0000      	beq 1530 <__HALF_BANK_SIZE_+0x530>
    1532:	f614      	strb r7,[r5,0x4]
    1534:	0000      	beq 1534 <__HALF_BANK_SIZE_+0x534>
    1536:	1400      	beq 155e <__HALF_BANK_SIZE_+0x55e>
    1538:	056c 0000 	ldrd r0,[r1,+0x2]
    153c:	4b14      	strb r2,[r2,0x6]
    153e:	0000      	beq 153e <__HALF_BANK_SIZE_+0x53e>
    1540:	0000      	beq 1540 <__HALF_BANK_SIZE_+0x540>
    1542:	040f 0572 	*unknown*
    1546:	0000      	beq 1546 <__HALF_BANK_SIZE_+0x546>
    1548:	4118 0005 	bne 1fca <__HALF_BANK_SIZE_+0xfca>
    154c:	0f00      	beq 156a <__HALF_BANK_SIZE_+0x56a>
    154e:	4e04      	ldrb r2,[r3,0x4]
    1550:	0005      	ldrb r0,[r0],r0
    1552:	1300      	beq 1578 <__HALF_BANK_SIZE_+0x578>
    1554:	0072      	movgte r0,r0
    1556:	0000      	beq 1556 <__HALF_BANK_SIZE_+0x556>
    1558:	059b 0000 	add r0,r1,3
    155c:	0314      	strb r0,[r0,0x6]
    155e:	0004      	ldrb r0,[r0]
    1560:	1400      	beq 1588 <__HALF_BANK_SIZE_+0x588>
    1562:	00f6      	lsl r0,r0,0x7
    1564:	0000      	beq 1564 <__HALF_BANK_SIZE_+0x564>
    1566:	7214      	strb r3,[r4,0x4]
    1568:	0000      	beq 1568 <__HALF_BANK_SIZE_+0x568>
    156a:	1400      	beq 1592 <__HALF_BANK_SIZE_+0x592>
    156c:	004b 0000 	*unknown*
    1570:	0f00      	beq 158e <__HALF_BANK_SIZE_+0x58e>
    1572:	7d04      	ldrb r3,[r7,0x2]
    1574:	0005      	ldrb r0,[r0],r0
    1576:	1300      	beq 159c <__HALF_BANK_SIZE_+0x59c>
    1578:	004b 0000 	*unknown*
    157c:	05b5      	strh r0,[r1],r3
    157e:	0000      	beq 157e <__HALF_BANK_SIZE_+0x57e>
    1580:	0314      	strb r0,[r0,0x6]
    1582:	0004      	ldrb r0,[r0]
    1584:	1400      	beq 15ac <__HALF_BANK_SIZE_+0x5ac>
    1586:	00f6      	lsl r0,r0,0x7
    1588:	0000      	beq 1588 <__HALF_BANK_SIZE_+0x588>
    158a:	0f00      	beq 15a8 <__HALF_BANK_SIZE_+0x5a8>
    158c:	a104      	ldrb r5,[r0,0x2]
    158e:	0005      	ldrb r0,[r0],r0
    1590:	0800      	beq 15a0 <__HALF_BANK_SIZE_+0x5a0>
    1592:	0036      	lsl r0,r0,0x1
    1594:	0000      	beq 1594 <__HALF_BANK_SIZE_+0x594>
    1596:	05cb 0000 	*unknown*
    159a:	b809 0000 	ldrb r5,[r6,+r0]
    159e:	0200      	beq 15a2 <__HALF_BANK_SIZE_+0x5a2>
    15a0:	0800      	beq 15b0 <__HALF_BANK_SIZE_+0x5b0>
    15a2:	0036      	lsl r0,r0,0x1
    15a4:	0000      	beq 15a4 <__HALF_BANK_SIZE_+0x5a4>
    15a6:	05db 0000 	*unknown*
    15aa:	b809 0000 	ldrb r5,[r6,+r0]
    15ae:	0000      	beq 15ae <__HALF_BANK_SIZE_+0x5ae>
    15b0:	0500      	beq 15ba <__HALF_BANK_SIZE_+0x5ba>
    15b2:	09b7      	fmadd r0,r2,r3
    15b4:	0000      	beq 15b4 <__HALF_BANK_SIZE_+0x5b4>
    15b6:	1105      	ldrb r0,[r4],r2
    15b8:	bb01      	ldrb r5,[r6,r6]
    15ba:	0002      	moveq r0,r0
    15bc:	1900      	beq 15ee <__HALF_BANK_SIZE_+0x5ee>
    15be:	0aff 0000 	*unknown*
    15c2:	0510      	bne 15cc <__HALF_BANK_SIZE_+0x5cc>
    15c4:	0115      	strb r0,[r0],r2
    15c6:	061c 0000 	strb r0,[r1,+0x4]
    15ca:	df16      	lsl r6,r7,0x18
    15cc:	0009 0500 	ldrb r0,[r8,+r16]
    15d0:	0117      	fsub r0,r0,r2
    15d2:	061c 0000 	strb r0,[r1,+0x4]
    15d6:	1600      	beq 1602 <__HALF_BANK_SIZE_+0x602>
    15d8:	0881      	ldrb r0,[r2,r1]
    15da:	0000      	beq 15da <__HALF_BANK_SIZE_+0x5da>
    15dc:	1805      	ldrb r0,[r6],r0
    15de:	4b01      	ldrb r2,[r2,r6]
    15e0:	0000      	beq 15e0 <__HALF_BANK_SIZE_+0x5e0>
    15e2:	0400      	beq 15ea <__HALF_BANK_SIZE_+0x5ea>
    15e4:	b116      	lsl r5,r4,0x8
    15e6:	0009 0500 	ldrb r0,[r8,+r16]
    15ea:	0119 0622 	*unknown*
    15ee:	0000      	beq 15ee <__HALF_BANK_SIZE_+0x5ee>
    15f0:	0008 040f 	beq 833f0 <__stack_start_+0x7b400>
    15f4:	05e7      	fix r0,r1
    15f6:	0000      	beq 15f6 <__HALF_BANK_SIZE_+0x5f6>
    15f8:	040f 05db 	*unknown*
    15fc:	0000      	beq 15fc <__HALF_BANK_SIZE_+0x5fc>
    15fe:	1619 0007 	*unknown*
    1602:	1000      	beq 1622 <__HALF_BANK_SIZE_+0x622>
    1604:	3105      	ldrb r1,[r4],r2
    1606:	5d01      	ldrb r2,[r7,r2]
    1608:	0006      	lsr r0,r0,0x0
    160a:	1600      	beq 1636 <__HALF_BANK_SIZE_+0x636>
    160c:	0a25      	ldrh r0,[r2],r4
    160e:	0000      	beq 160e <__HALF_BANK_SIZE_+0x60e>
    1610:	3205      	ldrb r1,[r4],r4
    1612:	5d01      	ldrb r2,[r7,r2]
    1614:	0006      	lsr r0,r0,0x0
    1616:	0000      	beq 1616 <__HALF_BANK_SIZE_+0x616>
    1618:	5216      	lsl r2,r4,0x10
    161a:	000a      	eor r0,r0,r0
    161c:	0500      	beq 1626 <__HALF_BANK_SIZE_+0x626>
    161e:	0133      	sub r0,r0,2
    1620:	065d 0000 	str r0,[r1],+r4
    1624:	1606      	lsr r0,r5,0x10
    1626:	0a6e      	asr r0,r2,0x13
    1628:	0000      	beq 1628 <__HALF_BANK_SIZE_+0x628>
    162a:	3405      	ldrb r1,[r5],r0
    162c:	4401      	ldrb r2,[r1,r0]
    162e:	0000      	beq 162e <__HALF_BANK_SIZE_+0x62e>
    1630:	0c00      	beq 1648 <__HALF_BANK_SIZE_+0x648>
    1632:	0800      	beq 1642 <__HALF_BANK_SIZE_+0x642>
    1634:	0044      	ldr r0,[r0]
    1636:	0000      	beq 1636 <__HALF_BANK_SIZE_+0x636>
    1638:	066d 0000 	ldrd r0,[r1],+r4
    163c:	b809 0000 	ldrb r5,[r6,+r0]
    1640:	0200      	beq 1644 <__HALF_BANK_SIZE_+0x644>
    1642:	1a00      	beq 1676 <__HALF_BANK_SIZE_+0x676>
    1644:	05e0      	b 164e <__HALF_BANK_SIZE_+0x64e>
    1646:	0263      	mov r0,0x13
    1648:	076e      	asr r0,r1,0x1b
    164a:	0000      	beq 164a <__HALF_BANK_SIZE_+0x64a>
    164c:	e316      	lsl r7,r0,0x18
    164e:	000a      	eor r0,r0,r0
    1650:	0500      	beq 165a <__HALF_BANK_SIZE_+0x65a>
    1652:	0265      	ldrd r0,[r0],r4
    1654:	0028 0000 	bgtu 1654 <__HALF_BANK_SIZE_+0x654>
    1658:	1600      	beq 1684 <__HALF_BANK_SIZE_+0x684>
    165a:	0a58 0000 	bltu 166e <__HALF_BANK_SIZE_+0x66e>
    165e:	6605      	ldrb r3,[r1],r4
    1660:	3b02 0005 	*unknown*
    1664:	0400      	beq 166c <__HALF_BANK_SIZE_+0x66c>
    1666:	b016      	lsl r5,r4,0x0
    1668:	0008 0500 	beq a1668 <__stack_start_+0x99678>
    166c:	0267      	fix r0,r0
    166e:	076e      	asr r0,r1,0x1b
    1670:	0000      	beq 1670 <__HALF_BANK_SIZE_+0x670>
    1672:	1608 0b3b 	beq 168c9e <__PROG_SIZE_FOR_CORE_+0x68c9e>
    1676:	0000      	beq 1676 <__HALF_BANK_SIZE_+0x676>
    1678:	6805      	ldrb r3,[r2],r0
    167a:	6c02      	moveq r3,r3
    167c:	0001      	ldrb r0,[r0,r0]
    167e:	2800      	beq 16ce <__HALF_BANK_SIZE_+0x6ce>
    1680:	0d16      	lsl r0,r3,0x8
    1682:	0009 0500 	ldrb r0,[r8,+r16]
    1686:	0269 004b 	*unknown*
    168a:	0000      	beq 168a <__HALF_BANK_SIZE_+0x68a>
    168c:	1650      	bltu 16b8 <__HALF_BANK_SIZE_+0x6b8>
    168e:	09da      	and r0,r2,r3
    1690:	0000      	beq 1690 <__HALF_BANK_SIZE_+0x690>
    1692:	6a05      	ldrb r3,[r2],r4
    1694:	5902      	movts ls,r2
    1696:	0000      	beq 1696 <__HALF_BANK_SIZE_+0x696>
    1698:	5800      	beq 1748 <__HALF_BANK_SIZE_+0x748>
    169a:	5116      	lsl r2,r4,0x8
    169c:	000b 0500 	*unknown*
    16a0:	026b 0628 	*unknown*
    16a4:	0000      	beq 16a4 <__HALF_BANK_SIZE_+0x6a4>
    16a6:	1660      	bgt 16d2 <__HALF_BANK_SIZE_+0x6d2>
    16a8:	09e5      	ldrd r0,[r2],r3
    16aa:	0000      	beq 16aa <__HALF_BANK_SIZE_+0x6aa>
    16ac:	6c05      	ldrb r3,[r3],r0
    16ae:	e002      	moveq r7,r0
    16b0:	0000      	beq 16b0 <__HALF_BANK_SIZE_+0x6b0>
    16b2:	7000      	beq 1792 <__HALF_BANK_SIZE_+0x792>
    16b4:	5616      	lsl r2,r5,0x10
    16b6:	000b 0500 	*unknown*
    16ba:	026d 00e0 	*unknown*
    16be:	0000      	beq 16be <__HALF_BANK_SIZE_+0x6be>
    16c0:	1678 0778 	bgte f06ec <__stack_start_+0xe86fc>
    16c4:	0000      	beq 16c4 <__HALF_BANK_SIZE_+0x6c4>
    16c6:	6e05      	ldrb r3,[r3],r4
    16c8:	e002      	moveq r7,r0
    16ca:	0000      	beq 16ca <__HALF_BANK_SIZE_+0x6ca>
    16cc:	8000      	beq 15cc <__HALF_BANK_SIZE_+0x5cc>
    16ce:	0e16      	lsl r0,r3,0x10
    16d0:	000b 0500 	*unknown*
    16d4:	026f 077e 	*unknown*
    16d8:	0000      	beq 16d8 <__HALF_BANK_SIZE_+0x6d8>
    16da:	1688 08a4 	blt 115f06 <__PROG_SIZE_FOR_CORE_+0x15f06>
    16de:	0000      	beq 16de <__HALF_BANK_SIZE_+0x6de>
    16e0:	7005      	ldrb r3,[r4],r0
    16e2:	8e02 0007 	*unknown*
    16e6:	9000      	beq 1606 <__HALF_BANK_SIZE_+0x606>
    16e8:	7b16      	lsl r3,r6,0x18
    16ea:	000a      	eor r0,r0,r0
    16ec:	0500      	beq 16f6 <__HALF_BANK_SIZE_+0x6f6>
    16ee:	0271      	strd r0,[r0,r4]
    16f0:	004b 0000 	*unknown*
    16f4:	16a8 081b 	bbeq 104d20 <__PROG_SIZE_FOR_CORE_+0x4d20>
    16f8:	0000      	beq 16f8 <__HALF_BANK_SIZE_+0x6f8>
    16fa:	7205      	ldrb r3,[r4],r4
    16fc:	e002      	moveq r7,r0
    16fe:	0000      	beq 16fe <__HALF_BANK_SIZE_+0x6fe>
    1700:	b000      	beq 1660 <__HALF_BANK_SIZE_+0x660>
    1702:	6916      	lsl r3,r2,0x8
    1704:	0007      	fadd r0,r0,r0
    1706:	0500      	beq 1710 <__HALF_BANK_SIZE_+0x710>
    1708:	0273 00e0 	*unknown*
    170c:	0000      	beq 170c <__HALF_BANK_SIZE_+0x70c>
    170e:	16b8 080a 	bbne 102b3a <__PROG_SIZE_FOR_CORE_+0x2b3a>
    1712:	0000      	beq 1712 <__HALF_BANK_SIZE_+0x712>
    1714:	7405      	ldrb r3,[r5],r0
    1716:	e002      	moveq r7,r0
    1718:	0000      	beq 1718 <__HALF_BANK_SIZE_+0x718>
    171a:	c000      	beq 169a <__HALF_BANK_SIZE_+0x69a>
    171c:	2916      	lsl r1,r2,0x8
    171e:	0007      	fadd r0,r0,r0
    1720:	0500      	beq 172a <__HALF_BANK_SIZE_+0x72a>
    1722:	0275      	strd r0,[r0],r4
    1724:	00e0      	b 1724 <__HALF_BANK_SIZE_+0x724>
    1726:	0000      	beq 1726 <__HALF_BANK_SIZE_+0x726>
    1728:	16c8 0738 	bblt e8754 <__stack_start_+0xe0764>
    172c:	0000      	beq 172c <__HALF_BANK_SIZE_+0x72c>
    172e:	7605      	ldrb r3,[r5],r4
    1730:	e002      	moveq r7,r0
    1732:	0000      	beq 1732 <__HALF_BANK_SIZE_+0x732>
    1734:	d000      	beq 16d4 <__HALF_BANK_SIZE_+0x6d4>
    1736:	8d16      	lsl r4,r3,0x8
    1738:	0009 0500 	ldrb r0,[r8,+r16]
    173c:	0277      	fabs rd,rn
    173e:	004b 0000 	*unknown*
    1742:	00d8 4108 	bblte 822742 <__PROG_SIZE_FOR_CORE_+0x722742>
    1746:	0005      	ldrb r0,[r0],r0
    1748:	7e00      	beq 1844 <__HALF_BANK_SIZE_+0x844>
    174a:	0007      	fadd r0,r0,r0
    174c:	0900      	beq 175e <__HALF_BANK_SIZE_+0x75e>
    174e:	00b8 0000 	bbne 174e <__HALF_BANK_SIZE_+0x74e>
    1752:	0019 4108 	*unknown*
    1756:	0005      	ldrb r0,[r0],r0
    1758:	8e00      	beq 1674 <__HALF_BANK_SIZE_+0x674>
    175a:	0007      	fadd r0,r0,r0
    175c:	0900      	beq 176e <__HALF_BANK_SIZE_+0x76e>
    175e:	00b8 0000 	bbne 175e <__HALF_BANK_SIZE_+0x75e>
    1762:	0007      	fadd r0,r0,r0
    1764:	4108 0005 	beq 21e6 <__HALF_BANK_SIZE_+0x11e6>
    1768:	9e00      	beq 16a4 <__HALF_BANK_SIZE_+0x6a4>
    176a:	0007      	fadd r0,r0,r0
    176c:	0900      	beq 177e <__HALF_BANK_SIZE_+0x77e>
    176e:	00b8 0000 	bbne 176e <__HALF_BANK_SIZE_+0x76e>
    1772:	0017      	fsub r0,r0,r0
    1774:	f01a      	add r7,r4,r0
    1776:	7c05      	ldrb r3,[r7],r0
    1778:	c202 0007 	*unknown*
    177c:	1600      	beq 17a8 <__HALF_BANK_SIZE_+0x7a8>
    177e:	08ea      	asr r0,r2,r1
    1780:	0000      	beq 1780 <__HALF_BANK_SIZE_+0x780>
    1782:	7f05      	ldrb r3,[r7],r6
    1784:	c202 0007 	*unknown*
    1788:	0000      	beq 1788 <__HALF_BANK_SIZE_+0x788>
    178a:	0516      	lsl r0,r1,0x8
    178c:	000b 0500 	*unknown*
    1790:	0280      	blt 1794 <__HALF_BANK_SIZE_+0x794>
    1792:	07d2 0000 	*unknown*
    1796:	0078 b508 	bgte ff6a2796 <__SHARED_DRAM_+0x716a2796>
    179a:	0002      	moveq r0,r0
    179c:	d200      	beq 1740 <__HALF_BANK_SIZE_+0x740>
    179e:	0007      	fadd r0,r0,r0
    17a0:	0900      	beq 17b2 <__HALF_BANK_SIZE_+0x7b2>
    17a2:	00b8 0000 	bbne 17a2 <__HALF_BANK_SIZE_+0x7a2>
    17a6:	001d 2808 	*unknown*
    17aa:	0000      	beq 17aa <__HALF_BANK_SIZE_+0x7aa>
    17ac:	e200      	beq 1770 <__HALF_BANK_SIZE_+0x770>
    17ae:	0007      	fadd r0,r0,r0
    17b0:	0900      	beq 17c2 <__HALF_BANK_SIZE_+0x7c2>
    17b2:	00b8 0000 	bbne 17b2 <__HALF_BANK_SIZE_+0x7b2>
    17b6:	001d f01b 	*unknown*
    17ba:	6105      	ldrb r3,[r0],r2
    17bc:	0402      	moveq r0,r1
    17be:	0008 1c00 	beq 3817be <__PROG_SIZE_FOR_CORE_+0x2817be>
    17c2:	0a1e 0000 	*unknown*
    17c6:	7805      	ldrb r3,[r6],r0
    17c8:	6d02      	movts debug,r3
    17ca:	0006      	lsr r0,r0,0x0
    17cc:	1c00      	beq 1804 <__HALF_BANK_SIZE_+0x804>
    17ce:	0b28 0000 	bgtu 17e4 <__HALF_BANK_SIZE_+0x7e4>
    17d2:	8105      	ldrb r4,[r0],r2
    17d4:	9e02 0007 	*unknown*
    17d8:	0000      	beq 17d8 <__HALF_BANK_SIZE_+0x7d8>
    17da:	4108 0005 	beq 225c <__HALF_BANK_SIZE_+0x125c>
    17de:	1400      	beq 1806 <__HALF_BANK_SIZE_+0x806>
    17e0:	0008 0900 	beq 1217e0 <__PROG_SIZE_FOR_CORE_+0x217e0>
    17e4:	00b8 0000 	bbne 17e4 <__HALF_BANK_SIZE_+0x7e4>
    17e8:	0018 1f1d 	bne 3e51e8 <__PROG_SIZE_FOR_CORE_+0x2e51e8>
    17ec:	0008 1400 	beq 2817ec <__PROG_SIZE_FOR_CORE_+0x1817ec>
    17f0:	0403      	mov r0,0x20
    17f2:	0000      	beq 17f2 <__HALF_BANK_SIZE_+0x7f2>
    17f4:	0f00      	beq 1812 <__HALF_BANK_SIZE_+0x812>
    17f6:	1404      	ldrb r0,[r5]
    17f8:	0008 0f00 	beq 1e17f8 <__PROG_SIZE_FOR_CORE_+0xe17f8>
    17fc:	5604      	ldrb r2,[r5,0x4]
    17fe:	0001      	ldrb r0,[r0,r0]
    1800:	1d00      	beq 183a <__HALF_BANK_SIZE_+0x83a>
    1802:	0836      	lsl r0,r2,0x1
    1804:	0000      	beq 1804 <__HALF_BANK_SIZE_+0x804>
    1806:	4b14      	strb r2,[r2,0x6]
    1808:	0000      	beq 1808 <__HALF_BANK_SIZE_+0x808>
    180a:	0000      	beq 180a <__HALF_BANK_SIZE_+0x80a>
    180c:	040f 083c 	*unknown*
    1810:	0000      	beq 1810 <__HALF_BANK_SIZE_+0x810>
    1812:	040f 082b 	*unknown*
    1816:	0000      	beq 1816 <__HALF_BANK_SIZE_+0x816>
    1818:	db08 0005 	beq 23ce <__HALF_BANK_SIZE_+0x13ce>
    181c:	5200      	beq 18c0 <__HALF_BANK_SIZE_+0x8c0>
    181e:	0008 0900 	beq 12181e <__PROG_SIZE_FOR_CORE_+0x2181e>
    1822:	00b8 0000 	bbne 1822 <__HALF_BANK_SIZE_+0x822>
    1826:	0002      	moveq r0,r0
    1828:	fd1e 0008 	*unknown*
    182c:	0600      	beq 1838 <__HALF_BANK_SIZE_+0x838>
    182e:	8050      	bltu 172e <__HALF_BANK_SIZE_+0x72e>
    1830:	0000      	beq 1830 <__HALF_BANK_SIZE_+0x830>
    1832:	3a00      	beq 18a6 <__HALF_BANK_SIZE_+0x8a6>
    1834:	0000      	beq 1834 <__HALF_BANK_SIZE_+0x834>
    1836:	0100      	beq 1838 <__HALF_BANK_SIZE_+0x838>
    1838:	989c 0008 	strb r4,[r6,+0x41]
    183c:	1f00      	beq 187a <__HALF_BANK_SIZE_+0x87a>
    183e:	07ec 0000 	ldrd r0,[r1,+0x7]
    1842:	3a01      	ldrb r1,[r6,r4]
    1844:	004b 0000 	*unknown*
    1848:	0000      	beq 1848 <__HALF_BANK_SIZE_+0x848>
    184a:	0000      	beq 184a <__HALF_BANK_SIZE_+0x84a>
    184c:	9a20      	bgtu 1780 <__HALF_BANK_SIZE_+0x780>
    184e:	0000      	beq 184e <__HALF_BANK_SIZE_+0x84e>
    1850:	8b00      	beq 1766 <__HALF_BANK_SIZE_+0x766>
    1852:	0008 2100 	beq 421852 <__PROG_SIZE_FOR_CORE_+0x321852>
    1856:	5101      	ldrb r2,[r4,r2]
    1858:	3001      	ldrb r1,[r4,r0]
    185a:	0121      	ldrh r0,[r0,r2]
    185c:	0250      	bltu 1860 <__HALF_BANK_SIZE_+0x860>
    185e:	0074      	strd r0,[r0]
    1860:	2200      	beq 18a4 <__HALF_BANK_SIZE_+0x8a4>
    1862:	00ba      	sub r0,r0,r1
    1864:	0000      	beq 1864 <__HALF_BANK_SIZE_+0x864>
    1866:	0121      	ldrh r0,[r0,r2]
    1868:	0250      	bltu 186c <__HALF_BANK_SIZE_+0x86c>
    186a:	0074      	strd r0,[r0]
    186c:	0000      	beq 186c <__HALF_BANK_SIZE_+0x86c>
    186e:	8823      	mov r4,0x41
    1870:	000a      	eor r0,r0,r0
    1872:	0500      	beq 187c <__HALF_BANK_SIZE_+0x87c>
    1874:	0333      	sub r0,r0,-2
    1876:	08a4      	ldrh r0,[r2,0x1]
    1878:	0000      	beq 1878 <__HALF_BANK_SIZE_+0x878>
    187a:	0318 0004 	bne 2080 <__HALF_BANK_SIZE_+0x1080>
    187e:	0000      	beq 187e <__HALF_BANK_SIZE_+0x87e>
    1880:	0881      	ldrb r0,[r2,r1]
    1882:	0000      	beq 1882 <__HALF_BANK_SIZE_+0x882>
    1884:	0004      	ldrb r0,[r0]
    1886:	06cd 0000 	ldr r0,[r1],+r5
    188a:	0104      	ldrb r0,[r0,0x2]
    188c:	0aad 0000 	ldrh r0,[r2],+r5
    1890:	7f01      	ldrb r3,[r7,r6]
    1892:	000b 7400 	*unknown*
    1896:	0007      	fadd r0,r0,r0
    1898:	0200      	beq 189c <__HALF_BANK_SIZE_+0x89c>
    189a:	0601      	ldrb r0,[r1,r4]
    189c:	097c 0000 	strd r0,[r2,+0x2]
    18a0:	0102      	movts config,r0
    18a2:	7a08 0009 	beq 2b96 <__HALF_BANK_SIZE_+0x1b96>
    18a6:	0200      	beq 18aa <__HALF_BANK_SIZE_+0x8aa>
    18a8:	0502      	movts status,r0
    18aa:	0996      	lsl r0,r2,0xc
    18ac:	0000      	beq 18ac <__HALF_BANK_SIZE_+0x8ac>
    18ae:	0202 8807 	*unknown*
    18b2:	0008 0300 	beq 618b2 <__stack_start_+0x598c2>
    18b6:	0504      	ldrb r0,[r1,0x2]
    18b8:	6e69 0074 	*unknown*
    18bc:	0402      	moveq r0,r1
    18be:	5307      	fadd r2,r4,r6
    18c0:	0007      	fadd r0,r0,r0
    18c2:	0200      	beq 18c6 <__HALF_BANK_SIZE_+0x8c6>
    18c4:	0508 078f 	beq f36ce <__stack_start_+0xeb6de>
    18c8:	0000      	beq 18c8 <__HALF_BANK_SIZE_+0x8c8>
    18ca:	0802      	moveq r0,r2
    18cc:	4907      	fadd r2,r2,r2
    18ce:	0007      	fadd r0,r0,r0
    18d0:	0400      	beq 18d8 <__HALF_BANK_SIZE_+0x8d8>
    18d2:	0968 0000 	bgt 18e4 <__HALF_BANK_SIZE_+0x8e4>
    18d6:	0701      	ldrb r0,[r1,r6]
    18d8:	0035      	strh r0,[r0],r0
    18da:	0000      	beq 18da <__HALF_BANK_SIZE_+0x8da>
    18dc:	0402      	moveq r0,r1
    18de:	9405      	ldrb r4,[r5],r0
    18e0:	0007      	fadd r0,r0,r0
    18e2:	0400      	beq 18ea <__HALF_BANK_SIZE_+0x8ea>
    18e4:	0a41      	ldr r0,[r2,r4]
    18e6:	0000      	beq 18e6 <__HALF_BANK_SIZE_+0x8e6>
    18e8:	2c02      	moveq r1,r3
    18ea:	005c 0000 	str r0,[r0]
    18ee:	cb05      	ldrb r6,[r2],r6
    18f0:	0008 0300 	beq 618f0 <__stack_start_+0x59900>
    18f4:	0161      	ldrd r0,[r0,r2]
    18f6:	003c 0000 	strh r0,[r0]
    18fa:	0406      	lsr r0,r1,0x0
    18fc:	4602 0099 	*unknown*
    1900:	0000      	beq 1900 <__HALF_BANK_SIZE_+0x900>
    1902:	c507      	fadd r6,r1,r2
    1904:	0008 0200 	beq 41904 <__stack_start_+0x39914>
    1908:	6e48 0000 	blteu 19e4 <__HALF_BANK_SIZE_+0x9e4>
    190c:	0700      	beq 191a <__HALF_BANK_SIZE_+0x91a>
    190e:	0864      	ldrd r0,[r2]
    1910:	0000      	beq 1910 <__HALF_BANK_SIZE_+0x910>
    1912:	4902      	movts pc,r2
    1914:	0099 0000 	strb r0,[r0,+r1]
    1918:	0800      	beq 1928 <__HALF_BANK_SIZE_+0x928>
    191a:	0020      	bgtu 191a <__HALF_BANK_SIZE_+0x91a>
    191c:	0000      	beq 191c <__HALF_BANK_SIZE_+0x91c>
    191e:	00a9 0000 	ldrh r0,[r0,+r1]
    1922:	a909 0000 	ldrb r5,[r2,+r2]
    1926:	0300      	beq 192c <__HALF_BANK_SIZE_+0x92c>
    1928:	0200      	beq 192c <__HALF_BANK_SIZE_+0x92c>
    192a:	0704      	ldrb r0,[r1,0x6]
    192c:	0143      	mov r0,0xa
    192e:	0000      	beq 192e <__HALF_BANK_SIZE_+0x92e>
    1930:	080a      	eor r0,r2,r0
    1932:	4302 00d1 	*unknown*
    1936:	0000      	beq 1936 <__HALF_BANK_SIZE_+0x936>
    1938:	2b0b 000a 	*unknown*
    193c:	0200      	beq 1940 <__HALF_BANK_SIZE_+0x940>
    193e:	3545      	ldr r1,[r5],r2
    1940:	0000      	beq 1940 <__HALF_BANK_SIZE_+0x940>
    1942:	0000      	beq 1942 <__HALF_BANK_SIZE_+0x942>
    1944:	330b 000a 	*unknown*
    1948:	0200      	beq 194c <__HALF_BANK_SIZE_+0x94c>
    194a:	7a4a      	lsr r3,r6,r4
    194c:	0000      	beq 194c <__HALF_BANK_SIZE_+0x94c>
    194e:	0400      	beq 1956 <__HALF_BANK_SIZE_+0x956>
    1950:	0400      	beq 1958 <__HALF_BANK_SIZE_+0x958>
    1952:	09be 0000 	*unknown*
    1956:	4b02 00b0 	*unknown*
    195a:	0000      	beq 195a <__HALF_BANK_SIZE_+0x95a>
    195c:	3c04      	ldrb r1,[r7]
    195e:	0008 0200 	beq 4195e <__stack_start_+0x3996e>
    1962:	514f 0000 	*unknown*
    1966:	0c00      	beq 197e <__HALF_BANK_SIZE_+0x97e>
    1968:	0404      	ldrb r0,[r1]
    196a:	0a73 0000 	*unknown*
    196e:	1504      	ldrb r0,[r5,0x2]
    1970:	00f4      	strd r0,[r0,0x1]
    1972:	0000      	beq 1972 <__HALF_BANK_SIZE_+0x972>
    1974:	0402      	moveq r0,r1
    1976:	4e07      	fadd r2,r3,r4
    1978:	0007      	fadd r0,r0,r0
    197a:	0d00      	beq 1994 <__HALF_BANK_SIZE_+0x994>
    197c:	084d 0000 	ldr r0,[r2],+r0
    1980:	0420      	bgtu 1988 <__HALF_BANK_SIZE_+0x988>
    1982:	4e2c 0001 	ldrh r2,[r3,+0xc]
    1986:	0b00      	beq 199c <__HALF_BANK_SIZE_+0x99c>
    1988:	09df 0000 	*unknown*
    198c:	2e04      	ldrb r1,[r3,0x4]
    198e:	014e      	asr r0,r0,0xa
    1990:	0000      	beq 1990 <__HALF_BANK_SIZE_+0x990>
    1992:	0e00      	beq 19ae <__HALF_BANK_SIZE_+0x9ae>
    1994:	6b5f 0400 	*unknown*
    1998:	352f 0000 	*unknown*
    199c:	0400      	beq 19a4 <__HALF_BANK_SIZE_+0x9a4>
    199e:	160b 000a 	*unknown*
    19a2:	0400      	beq 19aa <__HALF_BANK_SIZE_+0x9aa>
    19a4:	352f 0000 	*unknown*
    19a8:	0800      	beq 19b8 <__HALF_BANK_SIZE_+0x9b8>
    19aa:	360b 0008 	*unknown*
    19ae:	0400      	beq 19b6 <__HALF_BANK_SIZE_+0x9b6>
    19b0:	352f 0000 	*unknown*
    19b4:	0c00      	beq 19cc <__HALF_BANK_SIZE_+0x9cc>
    19b6:	f00b 000a 	*unknown*
    19ba:	0400      	beq 19c2 <__HALF_BANK_SIZE_+0x9c2>
    19bc:	352f 0000 	*unknown*
    19c0:	1000      	beq 19e0 <__HALF_BANK_SIZE_+0x9e0>
    19c2:	5f0e      	asr r2,r7,0x18
    19c4:	0078 3004 	bgte 6021c4 <__PROG_SIZE_FOR_CORE_+0x5021c4>
    19c8:	0154      	str r0,[r0,0x2]
    19ca:	0000      	beq 19ca <__HALF_BANK_SIZE_+0x9ca>
    19cc:	0018 040f 	bne 837cc <__stack_start_+0x7b7dc>
    19d0:	00fb 0000 	*unknown*
    19d4:	e908 0000 	beq 1ba6 <__HALF_BANK_SIZE_+0xba6>
    19d8:	6400      	beq 1aa0 <__HALF_BANK_SIZE_+0xaa0>
    19da:	0001      	ldrb r0,[r0,r0]
    19dc:	0900      	beq 19ee <__HALF_BANK_SIZE_+0x9ee>
    19de:	00a9 0000 	ldrh r0,[r0,+r1]
    19e2:	0000      	beq 19e2 <__HALF_BANK_SIZE_+0x9e2>
    19e4:	5f0d 0008 	*unknown*
    19e8:	2800      	beq 1a38 <__HALF_BANK_SIZE_+0xa38>
    19ea:	3404      	ldrb r1,[r5]
    19ec:	01dd 0000 	str r0,[r0],+r3
    19f0:	860b 0007 	*unknown*
    19f4:	0400      	beq 19fc <__HALF_BANK_SIZE_+0x9fc>
    19f6:	3536      	lsl r1,r5,0x9
    19f8:	0000      	beq 19f8 <__HALF_BANK_SIZE_+0x9f8>
    19fa:	0000      	beq 19fa <__HALF_BANK_SIZE_+0x9fa>
    19fc:	490b 000a 	*unknown*
    1a00:	0400      	beq 1a08 <__HALF_BANK_SIZE_+0xa08>
    1a02:	3537      	fmadd r1,r5,r2
    1a04:	0000      	beq 1a04 <__HALF_BANK_SIZE_+0xa04>
    1a06:	0400      	beq 1a0e <__HALF_BANK_SIZE_+0xa0e>
    1a08:	a90b 0007 	*unknown*
    1a0c:	0400      	beq 1a14 <__HALF_BANK_SIZE_+0xa14>
    1a0e:	3538 0000 	bgteu 1a78 <__HALF_BANK_SIZE_+0xa78>
    1a12:	0800      	beq 1a22 <__HALF_BANK_SIZE_+0xa22>
    1a14:	690b 000b 	*unknown*
    1a18:	0400      	beq 1a20 <__HALF_BANK_SIZE_+0xa20>
    1a1a:	3539 0000 	strh r1,[r5,+r2]
    1a1e:	0c00      	beq 1a36 <__HALF_BANK_SIZE_+0xa36>
    1a20:	f10b 0008 	*unknown*
    1a24:	0400      	beq 1a2c <__HALF_BANK_SIZE_+0xa2c>
    1a26:	353a      	sub r1,r5,r2
    1a28:	0000      	beq 1a28 <__HALF_BANK_SIZE_+0xa28>
    1a2a:	1000      	beq 1a4a <__HALF_BANK_SIZE_+0xa4a>
    1a2c:	e00b 0008 	*unknown*
    1a30:	0400      	beq 1a38 <__HALF_BANK_SIZE_+0xa38>
    1a32:	353b 0000 	sub r1,r5,2
    1a36:	1400      	beq 1a5e <__HALF_BANK_SIZE_+0xa5e>
    1a38:	f50b 000a 	*unknown*
    1a3c:	0400      	beq 1a44 <__HALF_BANK_SIZE_+0xa44>
    1a3e:	353c 0000 	strh r1,[r5,+0x2]
    1a42:	1800      	beq 1a72 <__HALF_BANK_SIZE_+0xa72>
    1a44:	a00b 0009 	*unknown*
    1a48:	0400      	beq 1a50 <__HALF_BANK_SIZE_+0xa50>
    1a4a:	353d 0000 	strh r1,[r5],+r2
    1a4e:	1c00      	beq 1a86 <__HALF_BANK_SIZE_+0xa86>
    1a50:	300b 000b 	*unknown*
    1a54:	0400      	beq 1a5c <__HALF_BANK_SIZE_+0xa5c>
    1a56:	353e 0000 	*unknown*
    1a5a:	2000      	beq 1a9a <__HALF_BANK_SIZE_+0xa9a>
    1a5c:	1000      	beq 1a7c <__HALF_BANK_SIZE_+0xa7c>
    1a5e:	07b8 0000 	bbne 1a6c <__HALF_BANK_SIZE_+0xa6c>
    1a62:	0108 4704 	beq 8e2264 <__PROG_SIZE_FOR_CORE_+0x7e2264>
    1a66:	021d 0000 	strb r0,[r0],+r4
    1a6a:	290b 0008 	*unknown*
    1a6e:	0400      	beq 1a76 <__HALF_BANK_SIZE_+0xa76>
    1a70:	1d48 0002 	blteu 1eaa <__HALF_BANK_SIZE_+0xeaa>
    1a74:	0000      	beq 1a74 <__HALF_BANK_SIZE_+0xa74>
    1a76:	0a0b 0007 	*unknown*
    1a7a:	0400      	beq 1a82 <__HALF_BANK_SIZE_+0xa82>
    1a7c:	1d49 0002 	*unknown*
    1a80:	8000      	beq 1980 <__HALF_BANK_SIZE_+0x980>
    1a82:	6511      	strb r3,[r1,r2]
    1a84:	000a      	eor r0,r0,r0
    1a86:	0400      	beq 1a8e <__HALF_BANK_SIZE_+0xa8e>
    1a88:	e94b 0000 	*unknown*
    1a8c:	0000      	beq 1a8c <__HALF_BANK_SIZE_+0xa8c>
    1a8e:	1101      	ldrb r0,[r4,r2]
    1a90:	07dd 0000 	str r0,[r1],+r7
    1a94:	4e04      	ldrb r2,[r3,0x4]
    1a96:	00e9 0000 	ldrd r0,[r0,+r1]
    1a9a:	0104      	ldrb r0,[r0,0x2]
    1a9c:	0800      	beq 1aac <__HALF_BANK_SIZE_+0xaac>
    1a9e:	00e7      	fix r0,r0
    1aa0:	0000      	beq 1aa0 <__HALF_BANK_SIZE_+0xaa0>
    1aa2:	022d 0000 	ldrh r0,[r0],+r4
    1aa6:	a909 0000 	ldrb r5,[r2,+r2]
    1aaa:	1f00      	beq 1ae8 <__HALF_BANK_SIZE_+0xae8>
    1aac:	1000      	beq 1acc <__HALF_BANK_SIZE_+0xacc>
    1aae:	08fa      	orr r0,r2,r1
    1ab0:	0000      	beq 1ab0 <__HALF_BANK_SIZE_+0xab0>
    1ab2:	0190      	blte 1ab4 <__HALF_BANK_SIZE_+0xab4>
    1ab4:	5904      	ldrb r2,[r6,0x2]
    1ab6:	026b 0000 	*unknown*
    1aba:	df0b 0009 	*unknown*
    1abe:	0400      	beq 1ac6 <__HALF_BANK_SIZE_+0xac6>
    1ac0:	6b5a      	and r3,r2,r6
    1ac2:	0002      	moveq r0,r0
    1ac4:	0000      	beq 1ac4 <__HALF_BANK_SIZE_+0xac4>
    1ac6:	f70b 0009 	*unknown*
    1aca:	0400      	beq 1ad2 <__HALF_BANK_SIZE_+0xad2>
    1acc:	355b 0000 	*unknown*
    1ad0:	0400      	beq 1ad8 <__HALF_BANK_SIZE_+0xad8>
    1ad2:	310b 0008 	*unknown*
    1ad6:	0400      	beq 1ade <__HALF_BANK_SIZE_+0xade>
    1ad8:	715d 0002 	*unknown*
    1adc:	0800      	beq 1aec <__HALF_BANK_SIZE_+0xaec>
    1ade:	b80b 0007 	*unknown*
    1ae2:	0400      	beq 1aea <__HALF_BANK_SIZE_+0xaea>
    1ae4:	dd5e 0001 	*unknown*
    1ae8:	8800      	beq 19f8 <__HALF_BANK_SIZE_+0x9f8>
    1aea:	0f00      	beq 1b08 <__HALF_BANK_SIZE_+0xb08>
    1aec:	2d04      	ldrb r1,[r3,0x2]
    1aee:	0002      	moveq r0,r0
    1af0:	0800      	beq 1b00 <__HALF_BANK_SIZE_+0xb00>
    1af2:	0281      	ldrb r0,[r0,r5]
    1af4:	0000      	beq 1af4 <__HALF_BANK_SIZE_+0xaf4>
    1af6:	0281      	ldrb r0,[r0,r5]
    1af8:	0000      	beq 1af8 <__HALF_BANK_SIZE_+0xaf8>
    1afa:	a909 0000 	ldrb r5,[r2,+r2]
    1afe:	1f00      	beq 1b3c <__HALF_BANK_SIZE_+0xb3c>
    1b00:	0f00      	beq 1b1e <__HALF_BANK_SIZE_+0xb1e>
    1b02:	8704      	ldrb r4,[r1,0x6]
    1b04:	0002      	moveq r0,r0
    1b06:	1200      	beq 1b2a <__HALF_BANK_SIZE_+0xb2a>
    1b08:	aa0d 0009 	*unknown*
    1b0c:	0800      	beq 1b1c <__HALF_BANK_SIZE_+0xb1c>
    1b0e:	6904      	ldrb r3,[r2,0x2]
    1b10:	02ad 0000 	ldrh r0,[r0],+r5
    1b14:	a30b 0007 	*unknown*
    1b18:	0400      	beq 1b20 <__HALF_BANK_SIZE_+0xb20>
    1b1a:	ad6a      	asr r5,r3,r2
    1b1c:	0002      	moveq r0,r0
    1b1e:	0000      	beq 1b1e <__HALF_BANK_SIZE_+0xb1e>
    1b20:	150b 0000 	*unknown*
    1b24:	0400      	beq 1b2c <__HALF_BANK_SIZE_+0xb2c>
    1b26:	356b 0000 	*unknown*
    1b2a:	0400      	beq 1b32 <__HALF_BANK_SIZE_+0xb32>
    1b2c:	0f00      	beq 1b4a <__HALF_BANK_SIZE_+0xb4a>
    1b2e:	2004      	ldrb r1,[r0]
    1b30:	0000      	beq 1b30 <__HALF_BANK_SIZE_+0xb30>
    1b32:	0d00      	beq 1b4c <__HALF_BANK_SIZE_+0xb4c>
    1b34:	09c9 0000 	ldr r0,[r2,+r3]
    1b38:	0470      	bgte 1b40 <__HALF_BANK_SIZE_+0xb40>
    1b3a:	dda9 0003 	*unknown*
    1b3e:	0e00      	beq 1b5a <__HALF_BANK_SIZE_+0xb5a>
    1b40:	705f 0400 	*unknown*
    1b44:	adaa      	lsl r5,r3,r3
    1b46:	0002      	moveq r0,r0
    1b48:	0000      	beq 1b48 <__HALF_BANK_SIZE_+0xb48>
    1b4a:	5f0e      	asr r2,r7,0x18
    1b4c:	0072      	movgte r0,r0
    1b4e:	ab04      	ldrb r5,[r2,0x6]
    1b50:	0035      	strh r0,[r0],r0
    1b52:	0000      	beq 1b52 <__HALF_BANK_SIZE_+0xb52>
    1b54:	0e04      	ldrb r0,[r3,0x4]
    1b56:	775f 0400 	*unknown*
    1b5a:	35ac 0000 	ldrh r1,[r5,+0x3]
    1b5e:	0800      	beq 1b6e <__HALF_BANK_SIZE_+0xb6e>
    1b60:	d60b 0007 	*unknown*
    1b64:	0400      	beq 1b6c <__HALF_BANK_SIZE_+0xb6c>
    1b66:	27ad 0000 	ldrh r1,[r1],+r7
    1b6a:	0c00      	beq 1b82 <__HALF_BANK_SIZE_+0xb82>
    1b6c:	7b0b 0008 	*unknown*
    1b70:	0400      	beq 1b78 <__HALF_BANK_SIZE_+0xb78>
    1b72:	27ae      	asr r1,r1,0x1d
    1b74:	0000      	beq 1b74 <__HALF_BANK_SIZE_+0xb74>
    1b76:	0e00      	beq 1b92 <__HALF_BANK_SIZE_+0xb92>
    1b78:	5f0e      	asr r2,r7,0x18
    1b7a:	6662 0400 	*unknown*
    1b7e:	88af 0002 	movbeq r4,r2
    1b82:	1000      	beq 1ba2 <__HALF_BANK_SIZE_+0xba2>
    1b84:	600b 0007 	*unknown*
    1b88:	0400      	beq 1b90 <__HALF_BANK_SIZE_+0xb90>
    1b8a:	35b0      	bbne 1bf4 <__HALF_BANK_SIZE_+0xbf4>
    1b8c:	0000      	beq 1b8c <__HALF_BANK_SIZE_+0xb8c>
    1b8e:	1800      	beq 1bbe <__HALF_BANK_SIZE_+0xbbe>
    1b90:	c60b 0007 	*unknown*
    1b94:	0400      	beq 1b9c <__HALF_BANK_SIZE_+0xb9c>
    1b96:	e7b7      	fmadd r7,r1,r7
    1b98:	0000      	beq 1b98 <__HALF_BANK_SIZE_+0xb98>
    1b9a:	1c00      	beq 1bd2 <__HALF_BANK_SIZE_+0xbd2>
    1b9c:	cf0b 0006 	*unknown*
    1ba0:	0400      	beq 1ba8 <__HALF_BANK_SIZE_+0xba8>
    1ba2:	40b9 0005 	*unknown*
    1ba6:	2000      	beq 1be6 <__HALF_BANK_SIZE_+0xbe6>
    1ba8:	710b 0005 	*unknown*
    1bac:	0400      	beq 1bb4 <__HALF_BANK_SIZE_+0xbb4>
    1bae:	6fbb 0005 	sub r3,r3,47
    1bb2:	2400      	beq 1bfa <__HALF_BANK_SIZE_+0xbfa>
    1bb4:	3b0b 000a 	*unknown*
    1bb8:	0400      	beq 1bc0 <__HALF_BANK_SIZE_+0xbc0>
    1bba:	93bd 0005 	*unknown*
    1bbe:	2800      	beq 1c0e <__HALF_BANK_SIZE_+0xc0e>
    1bc0:	4a0b 000b 	*unknown*
    1bc4:	0400      	beq 1bcc <__HALF_BANK_SIZE_+0xbcc>
    1bc6:	adbe 0005 	*unknown*
    1bca:	2c00      	beq 1c22 <__HALF_BANK_SIZE_+0xc22>
    1bcc:	5f0e      	asr r2,r7,0x18
    1bce:	6275      	strd r3,[r0],r4
    1bd0:	0400      	beq 1bd8 <__HALF_BANK_SIZE_+0xbd8>
    1bd2:	88c1      	ldr r4,[r2,r1]
    1bd4:	0002      	moveq r0,r0
    1bd6:	3000      	beq 1c36 <__HALF_BANK_SIZE_+0xc36>
    1bd8:	5f0e      	asr r2,r7,0x18
    1bda:	7075      	strd r3,[r4],r0
    1bdc:	0400      	beq 1be4 <__HALF_BANK_SIZE_+0xbe4>
    1bde:	adc2 0002 	*unknown*
    1be2:	3800      	beq 1c52 <__HALF_BANK_SIZE_+0xc52>
    1be4:	5f0e      	asr r2,r7,0x18
    1be6:	7275      	strd r3,[r4],r4
    1be8:	0400      	beq 1bf0 <__HALF_BANK_SIZE_+0xbf0>
    1bea:	35c3      	mov r1,0xae
    1bec:	0000      	beq 1bec <__HALF_BANK_SIZE_+0xbec>
    1bee:	3c00      	beq 1c66 <__HALF_BANK_SIZE_+0xc66>
    1bf0:	9d0b 0007 	*unknown*
    1bf4:	0400      	beq 1bfc <__HALF_BANK_SIZE_+0xbfc>
    1bf6:	b3c6      	lsr r5,r4,0x1e
    1bf8:	0005      	ldrb r0,[r0],r0
    1bfa:	4000      	beq 1c7a <__HALF_BANK_SIZE_+0xc7a>
    1bfc:	220b 000b 	*unknown*
    1c00:	0400      	beq 1c08 <__HALF_BANK_SIZE_+0xc08>
    1c02:	c3c7      	fmsub r6,r0,r7
    1c04:	0005      	ldrb r0,[r0],r0
    1c06:	4300      	beq 1c8c <__HALF_BANK_SIZE_+0xc8c>
    1c08:	5f0e      	asr r2,r7,0x18
    1c0a:	626c 0400 	ldrd r3,[r8,+0x4]
    1c0e:	88ca      	lsr r4,r2,r1
    1c10:	0002      	moveq r0,r0
    1c12:	4800      	beq 1ca2 <__HALF_BANK_SIZE_+0xca2>
    1c14:	f10b 0007 	*unknown*
    1c18:	0400      	beq 1c20 <__HALF_BANK_SIZE_+0xc20>
    1c1a:	35cd 0000 	ldr r1,[r5],+r3
    1c1e:	5000      	beq 1cbe <__HALF_BANK_SIZE_+0xcbe>
    1c20:	020b 0008 	*unknown*
    1c24:	0400      	beq 1c2c <__HALF_BANK_SIZE_+0xc2c>
    1c26:	35ce      	asr r1,r5,0xe
    1c28:	0000      	beq 1c28 <__HALF_BANK_SIZE_+0xc28>
    1c2a:	5400      	beq 1cd2 <__HALF_BANK_SIZE_+0xcd2>
    1c2c:	790b 000b 	*unknown*
    1c30:	0400      	beq 1c38 <__HALF_BANK_SIZE_+0xc38>
    1c32:	fbd1      	str r7,[r6,r7]
    1c34:	0003      	mov r0,0x0
    1c36:	5800      	beq 1ce6 <__HALF_BANK_SIZE_+0xce6>
    1c38:	d20b 0008 	*unknown*
    1c3c:	0400      	beq 1c44 <__HALF_BANK_SIZE_+0xc44>
    1c3e:	dcd5      	str r6,[r7],r1
    1c40:	0000      	beq 1c40 <__HALF_BANK_SIZE_+0xc40>
    1c42:	5c00      	beq 1cfa <__HALF_BANK_SIZE_+0xcfa>
    1c44:	d10b 0009 	*unknown*
    1c48:	0400      	beq 1c50 <__HALF_BANK_SIZE_+0xc50>
    1c4a:	d1d7      	float r6,r4
    1c4c:	0000      	beq 1c4c <__HALF_BANK_SIZE_+0xc4c>
    1c4e:	6000      	beq 1d0e <__HALF_BANK_SIZE_+0xd0e>
    1c50:	d80b 0008 	*unknown*
    1c54:	0400      	beq 1c5c <__HALF_BANK_SIZE_+0xc5c>
    1c56:	35d8 0000 	bblte 1cc0 <__HALF_BANK_SIZE_+0xcc0>
    1c5a:	6800      	beq 1d2a <__HALF_BANK_SIZE_+0xd2a>
    1c5c:	1300      	beq 1c82 <__HALF_BANK_SIZE_+0xc82>
    1c5e:	0035      	strh r0,[r0],r0
    1c60:	0000      	beq 1c60 <__HALF_BANK_SIZE_+0xc60>
    1c62:	03fb 0000 	*unknown*
    1c66:	fb14      	strb r7,[r6,0x6]
    1c68:	0003      	mov r0,0x0
    1c6a:	1400      	beq 1c92 <__HALF_BANK_SIZE_+0xc92>
    1c6c:	00e7      	fix r0,r0
    1c6e:	0000      	beq 1c6e <__HALF_BANK_SIZE_+0xc6e>
    1c70:	3314      	strb r1,[r4,0x6]
    1c72:	0005      	ldrb r0,[r0],r0
    1c74:	1400      	beq 1c9c <__HALF_BANK_SIZE_+0xc9c>
    1c76:	0035      	strh r0,[r0],r0
    1c78:	0000      	beq 1c78 <__HALF_BANK_SIZE_+0xc78>
    1c7a:	0f00      	beq 1c98 <__HALF_BANK_SIZE_+0xc98>
    1c7c:	0104      	ldrb r0,[r0,0x2]
    1c7e:	0004      	ldrb r0,[r0]
    1c80:	1500      	beq 1caa <__HALF_BANK_SIZE_+0xcaa>
    1c82:	0a1e 0000 	*unknown*
    1c86:	0448 4404 	blteu 88248e <__PROG_SIZE_FOR_CORE_+0x78248e>
    1c8a:	3302 0005 	*unknown*
    1c8e:	1600      	beq 1cba <__HALF_BANK_SIZE_+0xcba>
    1c90:	098f 0000 	*unknown*
    1c94:	4604      	ldrb r2,[r1,0x4]
    1c96:	3502      	movts lc,r1
    1c98:	0000      	beq 1c98 <__HALF_BANK_SIZE_+0xc98>
    1c9a:	0000      	beq 1c9a <__HALF_BANK_SIZE_+0xc9a>
    1c9c:	e516      	lsl r7,r1,0x8
    1c9e:	0007      	fadd r0,r0,r0
    1ca0:	0400      	beq 1ca8 <__HALF_BANK_SIZE_+0xca8>
    1ca2:	024b 061a 	*unknown*
    1ca6:	0000      	beq 1ca6 <__HALF_BANK_SIZE_+0xca6>
    1ca8:	1604      	ldrb r0,[r5,0x4]
    1caa:	086b 0000 	*unknown*
    1cae:	4b04      	ldrb r2,[r2,0x6]
    1cb0:	1a02 0006 	*unknown*
    1cb4:	0800      	beq 1cc4 <__HALF_BANK_SIZE_+0xcc4>
    1cb6:	4516      	lsl r2,r1,0x8
    1cb8:	0008 0400 	beq 81cb8 <__stack_start_+0x79cc8>
    1cbc:	024b 061a 	*unknown*
    1cc0:	0000      	beq 1cc0 <__HALF_BANK_SIZE_+0xcc0>
    1cc2:	160c 09f2 	ldrb r0,[r21,-0x794]
    1cc6:	0000      	beq 1cc6 <__HALF_BANK_SIZE_+0xcc6>
    1cc8:	4d04      	ldrb r2,[r3,0x2]
    1cca:	3502      	movts lc,r1
    1ccc:	0000      	beq 1ccc <__HALF_BANK_SIZE_+0xccc>
    1cce:	1000      	beq 1cee <__HALF_BANK_SIZE_+0xcee>
    1cd0:	1e16      	lsl r0,r7,0x10
    1cd2:	0007      	fadd r0,r0,r0
    1cd4:	0400      	beq 1cdc <__HALF_BANK_SIZE_+0xcdc>
    1cd6:	024e      	asr r0,r0,0x12
    1cd8:	07fc 0000 	strd r0,[r1,+0x7]
    1cdc:	1614      	strb r0,[r5,0x4]
    1cde:	0a9b 0000 	add r0,r2,5
    1ce2:	5004      	ldrb r2,[r4]
    1ce4:	3502      	movts lc,r1
    1ce6:	0000      	beq 1ce6 <__HALF_BANK_SIZE_+0xce6>
    1ce8:	3000      	beq 1d48 <__HALF_BANK_SIZE_+0xd48>
    1cea:	fc16      	lsl r7,r7,0x0
    1cec:	0009 0400 	ldrb r0,[r8,+r0]
    1cf0:	0251      	str r0,[r0,r4]
    1cf2:	0564      	ldrd r0,[r1,0x2]
    1cf4:	0000      	beq 1cf4 <__HALF_BANK_SIZE_+0xcf4>
    1cf6:	1634      	strh r0,[r5,0x4]
    1cf8:	0902      	movts pc,r0
    1cfa:	0000      	beq 1cfa <__HALF_BANK_SIZE_+0xcfa>
    1cfc:	5304      	ldrb r2,[r4,0x6]
    1cfe:	3502      	movts lc,r1
    1d00:	0000      	beq 1d00 <__HALF_BANK_SIZE_+0xd00>
    1d02:	3800      	beq 1d72 <__HALF_BANK_SIZE_+0xd72>
    1d04:	0c16      	lsl r0,r3,0x0
    1d06:	000a      	eor r0,r0,r0
    1d08:	0400      	beq 1d10 <__HALF_BANK_SIZE_+0xd10>
    1d0a:	0255      	str r0,[r0],r4
    1d0c:	0817      	fsub r0,r2,r0
    1d0e:	0000      	beq 1d0e <__HALF_BANK_SIZE_+0xd0e>
    1d10:	163c 08bd 	strh r0,[r21,+0x5ec]
    1d14:	0000      	beq 1d14 <__HALF_BANK_SIZE_+0xd14>
    1d16:	5804      	ldrb r2,[r6]
    1d18:	4e02 0001 	*unknown*
    1d1c:	4000      	beq 1d9c <__HALF_BANK_SIZE_+0xd9c>
    1d1e:	5516      	lsl r2,r5,0x8
    1d20:	0008 0400 	beq 81d20 <__stack_start_+0x79d30>
    1d24:	0259 0035 	*unknown*
    1d28:	0000      	beq 1d28 <__HALF_BANK_SIZE_+0xd28>
    1d2a:	1644      	ldr r0,[r5,0x4]
    1d2c:	0b64      	ldrd r0,[r2,0x6]
    1d2e:	0000      	beq 1d2e <__HALF_BANK_SIZE_+0xd2e>
    1d30:	5a04      	ldrb r2,[r6,0x4]
    1d32:	4e02 0001 	*unknown*
    1d36:	4800      	beq 1dc6 <__HALF_BANK_SIZE_+0xdc6>
    1d38:	1c16      	lsl r0,r7,0x0
    1d3a:	0009 0400 	ldrb r0,[r8,+r0]
    1d3e:	025b 081d 	*unknown*
    1d42:	0000      	beq 1d42 <__HALF_BANK_SIZE_+0xd42>
    1d44:	164c 0873 	ldr r0,[r21,+0x39c]
    1d48:	0000      	beq 1d48 <__HALF_BANK_SIZE_+0xd48>
    1d4a:	5e04      	ldrb r2,[r7,0x4]
    1d4c:	3502      	movts lc,r1
    1d4e:	0000      	beq 1d4e <__HALF_BANK_SIZE_+0xd4e>
    1d50:	5000      	beq 1df0 <__HALF_BANK_SIZE_+0xdf0>
    1d52:	fa16      	lsl r7,r6,0x10
    1d54:	0007      	fadd r0,r0,r0
    1d56:	0400      	beq 1d5e <__HALF_BANK_SIZE_+0xd5e>
    1d58:	025f 0533 	*unknown*
    1d5c:	0000      	beq 1d5c <__HALF_BANK_SIZE_+0xd5c>
    1d5e:	1654      	str r0,[r5,0x4]
    1d60:	0988 0000 	blt 1d72 <__HALF_BANK_SIZE_+0xd72>
    1d64:	8204      	ldrb r4,[r0,0x4]
    1d66:	da02 0007 	*unknown*
    1d6a:	5800      	beq 1e1a <__HALF_BANK_SIZE_+0xe1a>
    1d6c:	fa17      	fsub r7,r6,r4
    1d6e:	0008 0400 	beq 81d6e <__stack_start_+0x79d7e>
    1d72:	0285      	ldrb r0,[r0],r5
    1d74:	026b 0000 	*unknown*
    1d78:	0148 9b17 	blteu ff364b7a <__SHARED_DRAM_+0x71364b7a>
    1d7c:	0008 0400 	beq 81d7c <__stack_start_+0x79d8c>
    1d80:	0286      	lsr r0,r0,0x14
    1d82:	022d 0000 	ldrh r0,[r0],+r4
    1d86:	0150      	bltu 1d88 <__HALF_BANK_SIZE_+0xd88>
    1d88:	1817      	fsub r0,r6,r0
    1d8a:	000b 0400 	*unknown*
    1d8e:	0289 082e 	*unknown*
    1d92:	0000      	beq 1d92 <__HALF_BANK_SIZE_+0xd92>
    1d94:	02e0      	b 1d98 <__HALF_BANK_SIZE_+0xd98>
    1d96:	ce17      	fsub r6,r3,r4
    1d98:	0007      	fadd r0,r0,r0
    1d9a:	0400      	beq 1da2 <__HALF_BANK_SIZE_+0xda2>
    1d9c:	028e      	asr r0,r0,0x14
    1d9e:	05df 0000 	*unknown*
    1da2:	02e8 b317 	b ff664ba6 <__SHARED_DRAM_+0x71664ba6>
    1da6:	0007      	fadd r0,r0,r0
    1da8:	0400      	beq 1db0 <__HALF_BANK_SIZE_+0xdb0>
    1daa:	028f 083a 	*unknown*
    1dae:	0000      	beq 1dae <__HALF_BANK_SIZE_+0xdae>
    1db0:	02f8 0f00 	bl 1e1db4 <__PROG_SIZE_FOR_CORE_+0xe1db4>
    1db4:	3904      	ldrb r1,[r6,0x2]
    1db6:	0005      	ldrb r0,[r0],r0
    1db8:	0200      	beq 1dbc <__HALF_BANK_SIZE_+0xdbc>
    1dba:	0801      	ldrb r0,[r2,r0]
    1dbc:	0983      	mov r0,0x4c
    1dbe:	0000      	beq 1dbe <__HALF_BANK_SIZE_+0xdbe>
    1dc0:	040f 03dd 	*unknown*
    1dc4:	0000      	beq 1dc4 <__HALF_BANK_SIZE_+0xdc4>
    1dc6:	3513      	add r1,r5,2
    1dc8:	0000      	beq 1dc8 <__HALF_BANK_SIZE_+0xdc8>
    1dca:	6400      	beq 1e92 <__HALF_BANK_SIZE_+0xe92>
    1dcc:	0005      	ldrb r0,[r0],r0
    1dce:	1400      	beq 1df6 <__HALF_BANK_SIZE_+0xdf6>
    1dd0:	03fb 0000 	*unknown*
    1dd4:	e714      	strb r7,[r1,0x6]
    1dd6:	0000      	beq 1dd6 <__HALF_BANK_SIZE_+0xdd6>
    1dd8:	1400      	beq 1e00 <__HALF_BANK_SIZE_+0xe00>
    1dda:	0564      	ldrd r0,[r1,0x2]
    1ddc:	0000      	beq 1ddc <__HALF_BANK_SIZE_+0xddc>
    1dde:	3514      	strb r1,[r5,0x2]
    1de0:	0000      	beq 1de0 <__HALF_BANK_SIZE_+0xde0>
    1de2:	0000      	beq 1de2 <__HALF_BANK_SIZE_+0xde2>
    1de4:	040f 056a 	*unknown*
    1de8:	0000      	beq 1de8 <__HALF_BANK_SIZE_+0xde8>
    1dea:	3918 0005 	bne 285c <__HALF_BANK_SIZE_+0x185c>
    1dee:	0f00      	beq 1e0c <__HALF_BANK_SIZE_+0xe0c>
    1df0:	4604      	ldrb r2,[r1,0x4]
    1df2:	0005      	ldrb r0,[r0],r0
    1df4:	1300      	beq 1e1a <__HALF_BANK_SIZE_+0xe1a>
    1df6:	0063      	mov r0,0x3
    1df8:	0000      	beq 1df8 <__HALF_BANK_SIZE_+0xdf8>
    1dfa:	0593      	add r0,r1,3
    1dfc:	0000      	beq 1dfc <__HALF_BANK_SIZE_+0xdfc>
    1dfe:	fb14      	strb r7,[r6,0x6]
    1e00:	0003      	mov r0,0x0
    1e02:	1400      	beq 1e2a <__HALF_BANK_SIZE_+0xe2a>
    1e04:	00e7      	fix r0,r0
    1e06:	0000      	beq 1e06 <__HALF_BANK_SIZE_+0xe06>
    1e08:	6314      	strb r3,[r0,0x6]
    1e0a:	0000      	beq 1e0a <__HALF_BANK_SIZE_+0xe0a>
    1e0c:	1400      	beq 1e34 <__HALF_BANK_SIZE_+0xe34>
    1e0e:	0035      	strh r0,[r0],r0
    1e10:	0000      	beq 1e10 <__HALF_BANK_SIZE_+0xe10>
    1e12:	0f00      	beq 1e30 <__HALF_BANK_SIZE_+0xe30>
    1e14:	7504      	ldrb r3,[r5,0x2]
    1e16:	0005      	ldrb r0,[r0],r0
    1e18:	1300      	beq 1e3e <__HALF_BANK_SIZE_+0xe3e>
    1e1a:	0035      	strh r0,[r0],r0
    1e1c:	0000      	beq 1e1c <__HALF_BANK_SIZE_+0xe1c>
    1e1e:	05ad 0000 	ldrh r0,[r1],+r3
    1e22:	fb14      	strb r7,[r6,0x6]
    1e24:	0003      	mov r0,0x0
    1e26:	1400      	beq 1e4e <__HALF_BANK_SIZE_+0xe4e>
    1e28:	00e7      	fix r0,r0
    1e2a:	0000      	beq 1e2a <__HALF_BANK_SIZE_+0xe2a>
    1e2c:	0f00      	beq 1e4a <__HALF_BANK_SIZE_+0xe4a>
    1e2e:	9904      	ldrb r4,[r6,0x2]
    1e30:	0005      	ldrb r0,[r0],r0
    1e32:	0800      	beq 1e42 <__HALF_BANK_SIZE_+0xe42>
    1e34:	0020      	bgtu 1e34 <__HALF_BANK_SIZE_+0xe34>
    1e36:	0000      	beq 1e36 <__HALF_BANK_SIZE_+0xe36>
    1e38:	05c3      	mov r0,0x2e
    1e3a:	0000      	beq 1e3a <__HALF_BANK_SIZE_+0xe3a>
    1e3c:	a909 0000 	ldrb r5,[r2,+r2]
    1e40:	0200      	beq 1e44 <__HALF_BANK_SIZE_+0xe44>
    1e42:	0800      	beq 1e52 <__HALF_BANK_SIZE_+0xe52>
    1e44:	0020      	bgtu 1e44 <__HALF_BANK_SIZE_+0xe44>
    1e46:	0000      	beq 1e46 <__HALF_BANK_SIZE_+0xe46>
    1e48:	05d3 0000 	*unknown*
    1e4c:	a909 0000 	ldrb r5,[r2,+r2]
    1e50:	0000      	beq 1e50 <__HALF_BANK_SIZE_+0xe50>
    1e52:	0500      	beq 1e5c <__HALF_BANK_SIZE_+0xe5c>
    1e54:	09b7      	fmadd r0,r2,r3
    1e56:	0000      	beq 1e56 <__HALF_BANK_SIZE_+0xe56>
    1e58:	1104      	ldrb r0,[r4,0x2]
    1e5a:	b301      	ldrb r5,[r4,r6]
    1e5c:	0002      	moveq r0,r0
    1e5e:	1900      	beq 1e90 <__HALF_BANK_SIZE_+0xe90>
    1e60:	0aff 0000 	*unknown*
    1e64:	0410      	bne 1e6c <__HALF_BANK_SIZE_+0xe6c>
    1e66:	0115      	strb r0,[r0],r2
    1e68:	0614      	strb r0,[r1,0x4]
    1e6a:	0000      	beq 1e6a <__HALF_BANK_SIZE_+0xe6a>
    1e6c:	df16      	lsl r6,r7,0x18
    1e6e:	0009 0400 	ldrb r0,[r8,+r0]
    1e72:	0117      	fsub r0,r0,r2
    1e74:	0614      	strb r0,[r1,0x4]
    1e76:	0000      	beq 1e76 <__HALF_BANK_SIZE_+0xe76>
    1e78:	1600      	beq 1ea4 <__HALF_BANK_SIZE_+0xea4>
    1e7a:	0881      	ldrb r0,[r2,r1]
    1e7c:	0000      	beq 1e7c <__HALF_BANK_SIZE_+0xe7c>
    1e7e:	1804      	ldrb r0,[r6]
    1e80:	3501      	ldrb r1,[r5,r2]
    1e82:	0000      	beq 1e82 <__HALF_BANK_SIZE_+0xe82>
    1e84:	0400      	beq 1e8c <__HALF_BANK_SIZE_+0xe8c>
    1e86:	b116      	lsl r5,r4,0x8
    1e88:	0009 0400 	ldrb r0,[r8,+r0]
    1e8c:	0119 061a 	*unknown*
    1e90:	0000      	beq 1e90 <__HALF_BANK_SIZE_+0xe90>
    1e92:	0008 040f 	beq 83c92 <__stack_start_+0x7bca2>
    1e96:	05df 0000 	*unknown*
    1e9a:	040f 05d3 	*unknown*
    1e9e:	0000      	beq 1e9e <__HALF_BANK_SIZE_+0xe9e>
    1ea0:	1619 0007 	*unknown*
    1ea4:	1000      	beq 1ec4 <__HALF_BANK_SIZE_+0xec4>
    1ea6:	3104      	ldrb r1,[r4,0x2]
    1ea8:	5501      	ldrb r2,[r5,r2]
    1eaa:	0006      	lsr r0,r0,0x0
    1eac:	1600      	beq 1ed8 <__HALF_BANK_SIZE_+0xed8>
    1eae:	0a25      	ldrh r0,[r2],r4
    1eb0:	0000      	beq 1eb0 <__HALF_BANK_SIZE_+0xeb0>
    1eb2:	3204      	ldrb r1,[r4,0x4]
    1eb4:	5501      	ldrb r2,[r5,r2]
    1eb6:	0006      	lsr r0,r0,0x0
    1eb8:	0000      	beq 1eb8 <__HALF_BANK_SIZE_+0xeb8>
    1eba:	5216      	lsl r2,r4,0x10
    1ebc:	000a      	eor r0,r0,r0
    1ebe:	0400      	beq 1ec6 <__HALF_BANK_SIZE_+0xec6>
    1ec0:	0133      	sub r0,r0,2
    1ec2:	0655      	str r0,[r1],r4
    1ec4:	0000      	beq 1ec4 <__HALF_BANK_SIZE_+0xec4>
    1ec6:	1606      	lsr r0,r5,0x10
    1ec8:	0a6e      	asr r0,r2,0x13
    1eca:	0000      	beq 1eca <__HALF_BANK_SIZE_+0xeca>
    1ecc:	3404      	ldrb r1,[r5]
    1ece:	2e01      	ldrb r1,[r3,r4]
    1ed0:	0000      	beq 1ed0 <__HALF_BANK_SIZE_+0xed0>
    1ed2:	0c00      	beq 1eea <__HALF_BANK_SIZE_+0xeea>
    1ed4:	0800      	beq 1ee4 <__HALF_BANK_SIZE_+0xee4>
    1ed6:	002e      	asr r0,r0,0x1
    1ed8:	0000      	beq 1ed8 <__HALF_BANK_SIZE_+0xed8>
    1eda:	0665      	ldrd r0,[r1],r4
    1edc:	0000      	beq 1edc <__HALF_BANK_SIZE_+0xedc>
    1ede:	a909 0000 	ldrb r5,[r2,+r2]
    1ee2:	0200      	beq 1ee6 <__HALF_BANK_SIZE_+0xee6>
    1ee4:	1a00      	beq 1f18 <__HALF_BANK_SIZE_+0xf18>
    1ee6:	04e0      	b 1eee <__HALF_BANK_SIZE_+0xeee>
    1ee8:	0263      	mov r0,0x13
    1eea:	0766      	lsr r0,r1,0x1b
    1eec:	0000      	beq 1eec <__HALF_BANK_SIZE_+0xeec>
    1eee:	e316      	lsl r7,r0,0x18
    1ef0:	000a      	eor r0,r0,r0
    1ef2:	0400      	beq 1efa <__HALF_BANK_SIZE_+0xefa>
    1ef4:	0265      	ldrd r0,[r0],r4
    1ef6:	003c 0000 	strh r0,[r0]
    1efa:	1600      	beq 1f26 <__HALF_BANK_SIZE_+0xf26>
    1efc:	0a58 0000 	bltu 1f10 <__HALF_BANK_SIZE_+0xf10>
    1f00:	6604      	ldrb r3,[r1,0x4]
    1f02:	3302 0005 	*unknown*
    1f06:	0400      	beq 1f0e <__HALF_BANK_SIZE_+0xf0e>
    1f08:	b016      	lsl r5,r4,0x0
    1f0a:	0008 0400 	beq 81f0a <__stack_start_+0x79f1a>
    1f0e:	0267      	fix r0,r0
    1f10:	0766      	lsr r0,r1,0x1b
    1f12:	0000      	beq 1f12 <__HALF_BANK_SIZE_+0xf12>
    1f14:	1608 0b3b 	beq 169540 <__PROG_SIZE_FOR_CORE_+0x69540>
    1f18:	0000      	beq 1f18 <__HALF_BANK_SIZE_+0xf18>
    1f1a:	6804      	ldrb r3,[r2]
    1f1c:	6402      	moveq r3,r1
    1f1e:	0001      	ldrb r0,[r0,r0]
    1f20:	2800      	beq 1f70 <__HALF_BANK_SIZE_+0xf70>
    1f22:	0d16      	lsl r0,r3,0x8
    1f24:	0009 0400 	ldrb r0,[r8,+r0]
    1f28:	0269 0035 	*unknown*
    1f2c:	0000      	beq 1f2c <__HALF_BANK_SIZE_+0xf2c>
    1f2e:	1650      	bltu 1f5a <__HALF_BANK_SIZE_+0xf5a>
    1f30:	09da      	and r0,r2,r3
    1f32:	0000      	beq 1f32 <__HALF_BANK_SIZE_+0xf32>
    1f34:	6a04      	ldrb r3,[r2,0x4]
    1f36:	4a02 0000 	*unknown*
    1f3a:	5800      	beq 1fea <__HALF_BANK_SIZE_+0xfea>
    1f3c:	5116      	lsl r2,r4,0x8
    1f3e:	000b 0400 	*unknown*
    1f42:	026b 0620 	*unknown*
    1f46:	0000      	beq 1f46 <__HALF_BANK_SIZE_+0xf46>
    1f48:	1660      	bgt 1f74 <__HALF_BANK_SIZE_+0xf74>
    1f4a:	09e5      	ldrd r0,[r2],r3
    1f4c:	0000      	beq 1f4c <__HALF_BANK_SIZE_+0xf4c>
    1f4e:	6c04      	ldrb r3,[r3]
    1f50:	d102      	movts iab,r6
    1f52:	0000      	beq 1f52 <__HALF_BANK_SIZE_+0xf52>
    1f54:	7000      	beq 2034 <__HALF_BANK_SIZE_+0x1034>
    1f56:	5616      	lsl r2,r5,0x10
    1f58:	000b 0400 	*unknown*
    1f5c:	026d 00d1 	*unknown*
    1f60:	0000      	beq 1f60 <__HALF_BANK_SIZE_+0xf60>
    1f62:	1678 0778 	bgte f0f8e <__stack_start_+0xe8f9e>
    1f66:	0000      	beq 1f66 <__HALF_BANK_SIZE_+0xf66>
    1f68:	6e04      	ldrb r3,[r3,0x4]
    1f6a:	d102      	movts iab,r6
    1f6c:	0000      	beq 1f6c <__HALF_BANK_SIZE_+0xf6c>
    1f6e:	8000      	beq 1e6e <__HALF_BANK_SIZE_+0xe6e>
    1f70:	0e16      	lsl r0,r3,0x10
    1f72:	000b 0400 	*unknown*
    1f76:	026f 0776 	*unknown*
    1f7a:	0000      	beq 1f7a <__HALF_BANK_SIZE_+0xf7a>
    1f7c:	1688 08a4 	blt 1167a8 <__PROG_SIZE_FOR_CORE_+0x167a8>
    1f80:	0000      	beq 1f80 <__HALF_BANK_SIZE_+0xf80>
    1f82:	7004      	ldrb r3,[r4]
    1f84:	8602 0007 	*unknown*
    1f88:	9000      	beq 1ea8 <__HALF_BANK_SIZE_+0xea8>
    1f8a:	7b16      	lsl r3,r6,0x18
    1f8c:	000a      	eor r0,r0,r0
    1f8e:	0400      	beq 1f96 <__HALF_BANK_SIZE_+0xf96>
    1f90:	0271      	strd r0,[r0,r4]
    1f92:	0035      	strh r0,[r0],r0
    1f94:	0000      	beq 1f94 <__HALF_BANK_SIZE_+0xf94>
    1f96:	16a8 081b 	bbeq 1055c2 <__PROG_SIZE_FOR_CORE_+0x55c2>
    1f9a:	0000      	beq 1f9a <__HALF_BANK_SIZE_+0xf9a>
    1f9c:	7204      	ldrb r3,[r4,0x4]
    1f9e:	d102      	movts iab,r6
    1fa0:	0000      	beq 1fa0 <__HALF_BANK_SIZE_+0xfa0>
    1fa2:	b000      	beq 1f02 <__HALF_BANK_SIZE_+0xf02>
    1fa4:	6916      	lsl r3,r2,0x8
    1fa6:	0007      	fadd r0,r0,r0
    1fa8:	0400      	beq 1fb0 <__HALF_BANK_SIZE_+0xfb0>
    1faa:	0273 00d1 	*unknown*
    1fae:	0000      	beq 1fae <__HALF_BANK_SIZE_+0xfae>
    1fb0:	16b8 080a 	bbne 1033dc <__PROG_SIZE_FOR_CORE_+0x33dc>
    1fb4:	0000      	beq 1fb4 <__HALF_BANK_SIZE_+0xfb4>
    1fb6:	7404      	ldrb r3,[r5]
    1fb8:	d102      	movts iab,r6
    1fba:	0000      	beq 1fba <__HALF_BANK_SIZE_+0xfba>
    1fbc:	c000      	beq 1f3c <__HALF_BANK_SIZE_+0xf3c>
    1fbe:	2916      	lsl r1,r2,0x8
    1fc0:	0007      	fadd r0,r0,r0
    1fc2:	0400      	beq 1fca <__HALF_BANK_SIZE_+0xfca>
    1fc4:	0275      	strd r0,[r0],r4
    1fc6:	00d1      	str r0,[r0,r1]
    1fc8:	0000      	beq 1fc8 <__HALF_BANK_SIZE_+0xfc8>
    1fca:	16c8 0738 	bblt e8ff6 <__stack_start_+0xe1006>
    1fce:	0000      	beq 1fce <__HALF_BANK_SIZE_+0xfce>
    1fd0:	7604      	ldrb r3,[r5,0x4]
    1fd2:	d102      	movts iab,r6
    1fd4:	0000      	beq 1fd4 <__HALF_BANK_SIZE_+0xfd4>
    1fd6:	d000      	beq 1f76 <__HALF_BANK_SIZE_+0xf76>
    1fd8:	8d16      	lsl r4,r3,0x8
    1fda:	0009 0400 	ldrb r0,[r8,+r0]
    1fde:	0277      	fabs rd,rn
    1fe0:	0035      	strh r0,[r0],r0
    1fe2:	0000      	beq 1fe2 <__HALF_BANK_SIZE_+0xfe2>
    1fe4:	00d8 3908 	bblte 722fe4 <__PROG_SIZE_FOR_CORE_+0x622fe4>
    1fe8:	0005      	ldrb r0,[r0],r0
    1fea:	7600      	beq 20d6 <__HALF_BANK_SIZE_+0x10d6>
    1fec:	0007      	fadd r0,r0,r0
    1fee:	0900      	beq 2000 <__HALF_BANK_SIZE_+0x1000>
    1ff0:	00a9 0000 	ldrh r0,[r0,+r1]
    1ff4:	0019 3908 	*unknown*
    1ff8:	0005      	ldrb r0,[r0],r0
    1ffa:	8600      	beq 1f06 <__HALF_BANK_SIZE_+0xf06>
    1ffc:	0007      	fadd r0,r0,r0
    1ffe:	0900      	beq 2010 <__HALF_BANK_SIZE_+0x1010>
    2000:	00a9 0000 	ldrh r0,[r0,+r1]
    2004:	0007      	fadd r0,r0,r0
    2006:	3908 0005 	beq 2a78 <__HALF_BANK_SIZE_+0x1a78>
    200a:	9600      	beq 1f36 <__HALF_BANK_SIZE_+0xf36>
    200c:	0007      	fadd r0,r0,r0
    200e:	0900      	beq 2020 <__HALF_BANK_SIZE_+0x1020>
    2010:	00a9 0000 	ldrh r0,[r0,+r1]
    2014:	0017      	fsub r0,r0,r0
    2016:	f01a      	add r7,r4,r0
    2018:	7c04      	ldrb r3,[r7]
    201a:	ba02 0007 	*unknown*
    201e:	1600      	beq 204a <__HALF_BANK_SIZE_+0x104a>
    2020:	08ea      	asr r0,r2,r1
    2022:	0000      	beq 2022 <__HALF_BANK_SIZE_+0x1022>
    2024:	7f04      	ldrb r3,[r7,0x6]
    2026:	ba02 0007 	*unknown*
    202a:	0000      	beq 202a <__HALF_BANK_SIZE_+0x102a>
    202c:	0516      	lsl r0,r1,0x8
    202e:	000b 0400 	*unknown*
    2032:	0280      	blt 2036 <__HALF_BANK_SIZE_+0x1036>
    2034:	07ca      	lsr r0,r1,r7
    2036:	0000      	beq 2036 <__HALF_BANK_SIZE_+0x1036>
    2038:	0078 ad08 	bgte ff5a3038 <__SHARED_DRAM_+0x715a3038>
    203c:	0002      	moveq r0,r0
    203e:	ca00      	beq 1fd2 <__HALF_BANK_SIZE_+0xfd2>
    2040:	0007      	fadd r0,r0,r0
    2042:	0900      	beq 2054 <__HALF_BANK_SIZE_+0x1054>
    2044:	00a9 0000 	ldrh r0,[r0,+r1]
    2048:	001d 3c08 	*unknown*
    204c:	0000      	beq 204c <__HALF_BANK_SIZE_+0x104c>
    204e:	da00      	beq 2002 <__HALF_BANK_SIZE_+0x1002>
    2050:	0007      	fadd r0,r0,r0
    2052:	0900      	beq 2064 <__HALF_BANK_SIZE_+0x1064>
    2054:	00a9 0000 	ldrh r0,[r0,+r1]
    2058:	001d f01b 	*unknown*
    205c:	6104      	ldrb r3,[r0,0x2]
    205e:	fc02      	moveq r7,r7
    2060:	0007      	fadd r0,r0,r0
    2062:	1c00      	beq 209a <__HALF_BANK_SIZE_+0x109a>
    2064:	0a1e 0000 	*unknown*
    2068:	7804      	ldrb r3,[r6]
    206a:	6502      	movts status,r3
    206c:	0006      	lsr r0,r0,0x0
    206e:	1c00      	beq 20a6 <__HALF_BANK_SIZE_+0x10a6>
    2070:	0b28 0000 	bgtu 2086 <__HALF_BANK_SIZE_+0x1086>
    2074:	8104      	ldrb r4,[r0,0x2]
    2076:	9602 0007 	*unknown*
    207a:	0000      	beq 207a <__HALF_BANK_SIZE_+0x107a>
    207c:	3908 0005 	beq 2aee <__HALF_BANK_SIZE_+0x1aee>
    2080:	0c00      	beq 2098 <__HALF_BANK_SIZE_+0x1098>
    2082:	0008 0900 	beq 122082 <__PROG_SIZE_FOR_CORE_+0x22082>
    2086:	00a9 0000 	ldrh r0,[r0,+r1]
    208a:	0018 171d 	bne 2e5a8a <__PROG_SIZE_FOR_CORE_+0x1e5a8a>
    208e:	0008 1400 	beq 28208e <__PROG_SIZE_FOR_CORE_+0x18208e>
    2092:	03fb 0000 	*unknown*
    2096:	0f00      	beq 20b4 <__HALF_BANK_SIZE_+0x10b4>
    2098:	0c04      	ldrb r0,[r3]
    209a:	0008 0f00 	beq 1e209a <__PROG_SIZE_FOR_CORE_+0xe209a>
    209e:	4e04      	ldrb r2,[r3,0x4]
    20a0:	0001      	ldrb r0,[r0,r0]
    20a2:	1d00      	beq 20dc <__HALF_BANK_SIZE_+0x10dc>
    20a4:	082e      	asr r0,r2,0x1
    20a6:	0000      	beq 20a6 <__HALF_BANK_SIZE_+0x10a6>
    20a8:	3514      	strb r1,[r5,0x2]
    20aa:	0000      	beq 20aa <__HALF_BANK_SIZE_+0x10aa>
    20ac:	0000      	beq 20ac <__HALF_BANK_SIZE_+0x10ac>
    20ae:	040f 0834 	*unknown*
    20b2:	0000      	beq 20b2 <__HALF_BANK_SIZE_+0x10b2>
    20b4:	040f 0823 	*unknown*
    20b8:	0000      	beq 20b8 <__HALF_BANK_SIZE_+0x10b8>
    20ba:	d308 0005 	beq 2c60 <__HALF_BANK_SIZE_+0x1c60>
    20be:	4a00      	beq 2152 <__HALF_BANK_SIZE_+0x1152>
    20c0:	0008 0900 	beq 1220c0 <__PROG_SIZE_FOR_CORE_+0x220c0>
    20c4:	00a9 0000 	ldrh r0,[r0,+r1]
    20c8:	0002      	moveq r0,r0
    20ca:	731e 000b 	*unknown*
    20ce:	0500      	beq 20d8 <__HALF_BANK_SIZE_+0x10d8>
    20d0:	0117      	fsub r0,r0,r2
    20d2:	0004      	ldrb r0,[r0]
    20d4:	0500      	beq 20de <__HALF_BANK_SIZE_+0x10de>
    20d6:	0003      	mov r0,0x0
    20d8:	0002      	moveq r0,r0
    20da:	1f00      	beq 2118 <__HALF_BANK_SIZE_+0x1118>
    20dc:	0a8f 0000 	*unknown*
    20e0:	3204      	ldrb r1,[r4,0x4]
    20e2:	fb03      	mov r7,0xd8
    20e4:	0003      	mov r0,0x0
    20e6:	0500      	beq 20f0 <__HALF_BANK_SIZE_+0x10f0>
    20e8:	f803      	mov r7,0xc0
    20ea:	0001      	ldrb r0,[r0,r0]
    20ec:	1f00      	beq 212a <__HALF_BANK_SIZE_+0x112a>
    20ee:	0a88 0000 	blt 2102 <__HALF_BANK_SIZE_+0x1102>
    20f2:	3304      	ldrb r1,[r4,0x6]
    20f4:	7f03      	mov r3,0xf8
    20f6:	0008 0500 	beq a20f6 <__stack_start_+0x9a106>
    20fa:	bc03      	mov r5,0xe0
    20fc:	0000      	beq 20fc <__HALF_BANK_SIZE_+0x10fc>
    20fe:	1800      	beq 212e <__HALF_BANK_SIZE_+0x112e>
    2100:	03fb 0000 	*unknown*
    2104:	2a00      	beq 2158 <__HALF_BANK_SIZE_+0x1158>
    2106:	0009 0400 	ldrb r0,[r8,+r0]
    210a:	4b00      	beq 21a0 <__HALF_BANK_SIZE_+0x11a0>
    210c:	0008 0400 	beq 8210c <__stack_start_+0x7a11c>
    2110:	ad01      	ldrb r5,[r3,r2]
    2112:	000a      	eor r0,r0,r0
    2114:	0100      	beq 2116 <__HALF_BANK_SIZE_+0x1116>
    2116:	0bd9 0000 	str r0,[r2,+r7]
    211a:	00c0      	bblt 211a <__HALF_BANK_SIZE_+0x111a>
    211c:	0000      	beq 211c <__HALF_BANK_SIZE_+0x111c>
    211e:	0134      	strh r0,[r0,0x2]
    2120:	0000      	beq 2120 <__HALF_BANK_SIZE_+0x1120>
    2122:	0886      	lsr r0,r2,0x4
    2124:	0000      	beq 2124 <__HALF_BANK_SIZE_+0x1124>
    2126:	0402      	moveq r0,r1
    2128:	4e07      	fadd r2,r3,r4
    212a:	0007      	fadd r0,r0,r0
    212c:	0200      	beq 2130 <__HALF_BANK_SIZE_+0x1130>
    212e:	0704      	ldrb r0,[r1,0x6]
    2130:	0753 0000 	*unknown*
    2134:	0102      	movts config,r0
    2136:	7c06      	lsr r3,r7,0x0
    2138:	0009 0200 	ldrb r0,[r0,+r32]
    213c:	0801      	ldrb r0,[r2,r0]
    213e:	097a      	orr r0,r2,r2
    2140:	0000      	beq 2140 <__HALF_BANK_SIZE_+0x1140>
    2142:	0202 9605 	*unknown*
    2146:	0009 0200 	ldrb r0,[r0,+r32]
    214a:	0702 0888 	*unknown*
    214e:	0000      	beq 214e <__HALF_BANK_SIZE_+0x114e>
    2150:	0403      	mov r0,0x20
    2152:	6905      	ldrb r3,[r2],r2
    2154:	746e      	asr r3,r5,0x3
    2156:	0200      	beq 215a <__HALF_BANK_SIZE_+0x115a>
    2158:	0508 078f 	beq f3f62 <__stack_start_+0xebf72>
    215c:	0000      	beq 215c <__HALF_BANK_SIZE_+0x115c>
    215e:	0802      	moveq r0,r2
    2160:	4907      	fadd r2,r2,r2
    2162:	0007      	fadd r0,r0,r0
    2164:	0400      	beq 216c <__HALF_BANK_SIZE_+0x116c>
    2166:	0968 0000 	bgt 2178 <__HALF_BANK_SIZE_+0x1178>
    216a:	0702 004b 	*unknown*
    216e:	0000      	beq 216e <__HALF_BANK_SIZE_+0x116e>
    2170:	0402      	moveq r0,r1
    2172:	9405      	ldrb r4,[r5],r0
    2174:	0007      	fadd r0,r0,r0
    2176:	0400      	beq 217e <__HALF_BANK_SIZE_+0x117e>
    2178:	0a41      	ldr r0,[r2,r4]
    217a:	0000      	beq 217a <__HALF_BANK_SIZE_+0x117a>
    217c:	2c03      	mov r1,0x60
    217e:	006b 0000 	*unknown*
    2182:	cb05      	ldrb r6,[r2],r6
    2184:	0008 0400 	beq 82184 <__stack_start_+0x7a194>
    2188:	0161      	ldrd r0,[r0,r2]
    218a:	0028 0000 	bgtu 218a <__HALF_BANK_SIZE_+0x118a>
    218e:	0406      	lsr r0,r1,0x0
    2190:	4603      	mov r2,0x30
    2192:	00a8 0000 	bbeq 2192 <__HALF_BANK_SIZE_+0x1192>
    2196:	c507      	fadd r6,r1,r2
    2198:	0008 0300 	beq 62198 <__stack_start_+0x5a1a8>
    219c:	7d48 0000 	blteu 2296 <__HALF_BANK_SIZE_+0x1296>
    21a0:	0700      	beq 21ae <__HALF_BANK_SIZE_+0x11ae>
    21a2:	0864      	ldrd r0,[r2]
    21a4:	0000      	beq 21a4 <__HALF_BANK_SIZE_+0x11a4>
    21a6:	4903      	mov r2,0x48
    21a8:	00a8 0000 	bbeq 21a8 <__HALF_BANK_SIZE_+0x11a8>
    21ac:	0800      	beq 21bc <__HALF_BANK_SIZE_+0x11bc>
    21ae:	0036      	lsl r0,r0,0x1
    21b0:	0000      	beq 21b0 <__HALF_BANK_SIZE_+0x11b0>
    21b2:	00b8 0000 	bbne 21b2 <__HALF_BANK_SIZE_+0x11b2>
    21b6:	b809 0000 	ldrb r5,[r6,+r0]
    21ba:	0300      	beq 21c0 <__HALF_BANK_SIZE_+0x11c0>
    21bc:	0200      	beq 21c0 <__HALF_BANK_SIZE_+0x11c0>
    21be:	0704      	ldrb r0,[r1,0x6]
    21c0:	0143      	mov r0,0xa
    21c2:	0000      	beq 21c2 <__HALF_BANK_SIZE_+0x11c2>
    21c4:	080a      	eor r0,r2,r0
    21c6:	4303      	mov r2,0x18
    21c8:	00e0      	b 21c8 <__HALF_BANK_SIZE_+0x11c8>
    21ca:	0000      	beq 21ca <__HALF_BANK_SIZE_+0x11ca>
    21cc:	2b0b 000a 	*unknown*
    21d0:	0300      	beq 21d6 <__HALF_BANK_SIZE_+0x11d6>
    21d2:	4b45      	ldr r2,[r2],r6
    21d4:	0000      	beq 21d4 <__HALF_BANK_SIZE_+0x11d4>
    21d6:	0000      	beq 21d6 <__HALF_BANK_SIZE_+0x11d6>
    21d8:	330b 000a 	*unknown*
    21dc:	0300      	beq 21e2 <__HALF_BANK_SIZE_+0x11e2>
    21de:	894a      	lsr r4,r2,r2
    21e0:	0000      	beq 21e0 <__HALF_BANK_SIZE_+0x11e0>
    21e2:	0400      	beq 21ea <__HALF_BANK_SIZE_+0x11ea>
    21e4:	0400      	beq 21ec <__HALF_BANK_SIZE_+0x11ec>
    21e6:	09be 0000 	*unknown*
    21ea:	4b03      	mov r2,0x58
    21ec:	00bf 0000 	*unknown*
    21f0:	3c04      	ldrb r1,[r7]
    21f2:	0008 0300 	beq 621f2 <__stack_start_+0x5a202>
    21f6:	604f 0000 	*unknown*
    21fa:	0c00      	beq 2212 <__HALF_BANK_SIZE_+0x1212>
    21fc:	0404      	ldrb r0,[r1]
    21fe:	0a73 0000 	*unknown*
    2202:	1505      	ldrb r0,[r5],r2
    2204:	0021      	ldrh r0,[r0,r0]
    2206:	0000      	beq 2206 <__HALF_BANK_SIZE_+0x1206>
    2208:	4d0d 0008 	*unknown*
    220c:	2000      	beq 224c <__HALF_BANK_SIZE_+0x124c>
    220e:	2c05      	ldrb r1,[r3],r0
    2210:	0156      	lsl r0,r0,0xa
    2212:	0000      	beq 2212 <__HALF_BANK_SIZE_+0x1212>
    2214:	df0b 0009 	*unknown*
    2218:	0500      	beq 2222 <__HALF_BANK_SIZE_+0x1222>
    221a:	562e      	asr r2,r5,0x11
    221c:	0001      	ldrb r0,[r0,r0]
    221e:	0000      	beq 221e <__HALF_BANK_SIZE_+0x121e>
    2220:	5f0e      	asr r2,r7,0x18
    2222:	006b 2f05 	*unknown*
    2226:	004b 0000 	*unknown*
    222a:	0b04      	ldrb r0,[r2,0x6]
    222c:	0a16      	lsl r0,r2,0x10
    222e:	0000      	beq 222e <__HALF_BANK_SIZE_+0x122e>
    2230:	2f05      	ldrb r1,[r3],r6
    2232:	004b 0000 	*unknown*
    2236:	0b08 0836 	beq 108e4c <__PROG_SIZE_FOR_CORE_+0x8e4c>
    223a:	0000      	beq 223a <__HALF_BANK_SIZE_+0x123a>
    223c:	2f05      	ldrb r1,[r3],r6
    223e:	004b 0000 	*unknown*
    2242:	0b0c 0af0 	ldrb r0,[r18],+0x786
    2246:	0000      	beq 2246 <__HALF_BANK_SIZE_+0x1246>
    2248:	2f05      	ldrb r1,[r3],r6
    224a:	004b 0000 	*unknown*
    224e:	0e10      	bne 226a <__HALF_BANK_SIZE_+0x126a>
    2250:	785f 0500 	*unknown*
    2254:	5c30      	bgteu 230c <__HALF_BANK_SIZE_+0x130c>
    2256:	0001      	ldrb r0,[r0,r0]
    2258:	1800      	beq 2288 <__HALF_BANK_SIZE_+0x1288>
    225a:	0f00      	beq 2278 <__HALF_BANK_SIZE_+0x1278>
    225c:	0304      	ldrb r0,[r0,0x6]
    225e:	0001      	ldrb r0,[r0,r0]
    2260:	0800      	beq 2270 <__HALF_BANK_SIZE_+0x1270>
    2262:	00f8 0000 	bl 2262 <__HALF_BANK_SIZE_+0x1262>
    2266:	016c 0000 	ldrd r0,[r0,+0x2]
    226a:	b809 0000 	ldrb r5,[r6,+r0]
    226e:	0000      	beq 226e <__HALF_BANK_SIZE_+0x126e>
    2270:	0d00      	beq 228a <__HALF_BANK_SIZE_+0x128a>
    2272:	085f 0000 	*unknown*
    2276:	0528 e534 	bgtu ffca8a80 <__SHARED_DRAM_+0x71ca8a80>
    227a:	0001      	ldrb r0,[r0,r0]
    227c:	0b00      	beq 2292 <__HALF_BANK_SIZE_+0x1292>
    227e:	0786      	lsr r0,r1,0x1c
    2280:	0000      	beq 2280 <__HALF_BANK_SIZE_+0x1280>
    2282:	3605      	ldrb r1,[r5],r4
    2284:	004b 0000 	*unknown*
    2288:	0b00      	beq 229e <__HALF_BANK_SIZE_+0x129e>
    228a:	0a49 0000 	ldr r0,[r2,+r4]
    228e:	3705      	ldrb r1,[r5],r6
    2290:	004b 0000 	*unknown*
    2294:	0b04      	ldrb r0,[r2,0x6]
    2296:	07a9 0000 	ldrh r0,[r1,+r7]
    229a:	3805      	ldrb r1,[r6],r0
    229c:	004b 0000 	*unknown*
    22a0:	0b08 0b69 	beq 16f4b6 <__PROG_SIZE_FOR_CORE_+0x6f4b6>
    22a4:	0000      	beq 22a4 <__HALF_BANK_SIZE_+0x12a4>
    22a6:	3905      	ldrb r1,[r6],r2
    22a8:	004b 0000 	*unknown*
    22ac:	0b0c 08f1 	ldrb r0,[r18,+0x78e]
    22b0:	0000      	beq 22b0 <__HALF_BANK_SIZE_+0x12b0>
    22b2:	3a05      	ldrb r1,[r6],r4
    22b4:	004b 0000 	*unknown*
    22b8:	0b10      	bne 22ce <__HALF_BANK_SIZE_+0x12ce>
    22ba:	08e0      	b 22ca <__HALF_BANK_SIZE_+0x12ca>
    22bc:	0000      	beq 22bc <__HALF_BANK_SIZE_+0x12bc>
    22be:	3b05      	ldrb r1,[r6],r6
    22c0:	004b 0000 	*unknown*
    22c4:	0b14      	strb r0,[r2,0x6]
    22c6:	0af5      	strd r0,[r2],r5
    22c8:	0000      	beq 22c8 <__HALF_BANK_SIZE_+0x12c8>
    22ca:	3c05      	ldrb r1,[r7],r0
    22cc:	004b 0000 	*unknown*
    22d0:	0b18 09a0 	bne 1362e6 <__PROG_SIZE_FOR_CORE_+0x362e6>
    22d4:	0000      	beq 22d4 <__HALF_BANK_SIZE_+0x12d4>
    22d6:	3d05      	ldrb r1,[r7],r2
    22d8:	004b 0000 	*unknown*
    22dc:	0b1c 0b30 	strb r0,[r18],-0x186
    22e0:	0000      	beq 22e0 <__HALF_BANK_SIZE_+0x12e0>
    22e2:	3e05      	ldrb r1,[r7],r4
    22e4:	004b 0000 	*unknown*
    22e8:	0020      	bgtu 22e8 <__HALF_BANK_SIZE_+0x12e8>
    22ea:	b810      	bne 225a <__HALF_BANK_SIZE_+0x125a>
    22ec:	0007      	fadd r0,r0,r0
    22ee:	0800      	beq 22fe <__HALF_BANK_SIZE_+0x12fe>
    22f0:	0501      	ldrb r0,[r1,r2]
    22f2:	2547      	fmsub r1,r1,r2
    22f4:	0002      	moveq r0,r0
    22f6:	0b00      	beq 230c <__HALF_BANK_SIZE_+0x130c>
    22f8:	0829 0000 	ldrh r0,[r2,+r0]
    22fc:	4805      	ldrb r2,[r2],r0
    22fe:	0225      	ldrh r0,[r0],r4
    2300:	0000      	beq 2300 <__HALF_BANK_SIZE_+0x1300>
    2302:	0b00      	beq 2318 <__HALF_BANK_SIZE_+0x1318>
    2304:	070a      	eor r0,r1,r6
    2306:	0000      	beq 2306 <__HALF_BANK_SIZE_+0x1306>
    2308:	4905      	ldrb r2,[r2],r2
    230a:	0225      	ldrh r0,[r0],r4
    230c:	0000      	beq 230c <__HALF_BANK_SIZE_+0x130c>
    230e:	1180      	blt 2330 <__HALF_BANK_SIZE_+0x1330>
    2310:	0a65      	ldrd r0,[r2],r4
    2312:	0000      	beq 2312 <__HALF_BANK_SIZE_+0x1312>
    2314:	4b05      	ldrb r2,[r2],r6
    2316:	00f8 0000 	bl 2316 <__HALF_BANK_SIZE_+0x1316>
    231a:	0100      	beq 231c <__HALF_BANK_SIZE_+0x131c>
    231c:	dd11      	strb r6,[r7,r2]
    231e:	0007      	fadd r0,r0,r0
    2320:	0500      	beq 232a <__HALF_BANK_SIZE_+0x132a>
    2322:	f84e      	asr r7,r6,0x2
    2324:	0000      	beq 2324 <__HALF_BANK_SIZE_+0x1324>
    2326:	0400      	beq 232e <__HALF_BANK_SIZE_+0x132e>
    2328:	0001      	ldrb r0,[r0,r0]
    232a:	f608 0000 	beq 2516 <__HALF_BANK_SIZE_+0x1516>
    232e:	3500      	beq 2398 <__HALF_BANK_SIZE_+0x1398>
    2330:	0002      	moveq r0,r0
    2332:	0900      	beq 2344 <__HALF_BANK_SIZE_+0x1344>
    2334:	00b8 0000 	bbne 2334 <__HALF_BANK_SIZE_+0x1334>
    2338:	001f fa10 	*unknown*
    233c:	0008 9000 	beq ff20233c <__SHARED_DRAM_+0x7120233c>
    2340:	0501      	ldrb r0,[r1,r2]
    2342:	7359 0002 	*unknown*
    2346:	0b00      	beq 235c <__HALF_BANK_SIZE_+0x135c>
    2348:	09df 0000 	*unknown*
    234c:	5a05      	ldrb r2,[r6],r4
    234e:	0273 0000 	*unknown*
    2352:	0b00      	beq 2368 <__HALF_BANK_SIZE_+0x1368>
    2354:	09f7      	fabs rd,rn
    2356:	0000      	beq 2356 <__HALF_BANK_SIZE_+0x1356>
    2358:	5b05      	ldrb r2,[r6],r6
    235a:	004b 0000 	*unknown*
    235e:	0b04      	ldrb r0,[r2,0x6]
    2360:	0831      	strh r0,[r2,r0]
    2362:	0000      	beq 2362 <__HALF_BANK_SIZE_+0x1362>
    2364:	5d05      	ldrb r2,[r7],r2
    2366:	0279 0000 	strd r0,[r0,+r4]
    236a:	0b08 07b8 	beq f9380 <__stack_start_+0xf1390>
    236e:	0000      	beq 236e <__HALF_BANK_SIZE_+0x136e>
    2370:	5e05      	ldrb r2,[r7],r4
    2372:	01e5      	ldrd r0,[r0],r3
    2374:	0000      	beq 2374 <__HALF_BANK_SIZE_+0x1374>
    2376:	0088 040f 	blt 84176 <__stack_start_+0x7c186>
    237a:	0235      	strh r0,[r0],r4
    237c:	0000      	beq 237c <__HALF_BANK_SIZE_+0x137c>
    237e:	8908 0002 	beq 2890 <__HALF_BANK_SIZE_+0x1890>
    2382:	8900      	beq 2294 <__HALF_BANK_SIZE_+0x1294>
    2384:	0002      	moveq r0,r0
    2386:	0900      	beq 2398 <__HALF_BANK_SIZE_+0x1398>
    2388:	00b8 0000 	bbne 2388 <__HALF_BANK_SIZE_+0x1388>
    238c:	001f 040f 	*unknown*
    2390:	028f 0000 	*unknown*
    2394:	0d12      	movfs r0,debug
    2396:	09aa      	lsl r0,r2,r3
    2398:	0000      	beq 2398 <__HALF_BANK_SIZE_+0x1398>
    239a:	0508 b569 	beq ff6af5a4 <__SHARED_DRAM_+0x716af5a4>
    239e:	0002      	moveq r0,r0
    23a0:	0b00      	beq 23b6 <__HALF_BANK_SIZE_+0x13b6>
    23a2:	07a3      	mov r0,0x3d
    23a4:	0000      	beq 23a4 <__HALF_BANK_SIZE_+0x13a4>
    23a6:	6a05      	ldrb r3,[r2],r4
    23a8:	02b5      	strh r0,[r0],r5
    23aa:	0000      	beq 23aa <__HALF_BANK_SIZE_+0x13aa>
    23ac:	0b00      	beq 23c2 <__HALF_BANK_SIZE_+0x13c2>
    23ae:	0015      	strb r0,[r0],r0
    23b0:	0000      	beq 23b0 <__HALF_BANK_SIZE_+0x13b0>
    23b2:	6b05      	ldrb r3,[r2],r6
    23b4:	004b 0000 	*unknown*
    23b8:	0004      	ldrb r0,[r0]
    23ba:	040f 0036 	*unknown*
    23be:	0000      	beq 23be <__HALF_BANK_SIZE_+0x13be>
    23c0:	c90d 0009 	*unknown*
    23c4:	7000      	beq 24a4 <__HALF_BANK_SIZE_+0x14a4>
    23c6:	a905      	ldrb r5,[r2],r2
    23c8:	03e5      	ldrd r0,[r0],r7
    23ca:	0000      	beq 23ca <__HALF_BANK_SIZE_+0x13ca>
    23cc:	5f0e      	asr r2,r7,0x18
    23ce:	0070      	bgte 23ce <__HALF_BANK_SIZE_+0x13ce>
    23d0:	aa05      	ldrb r5,[r2],r4
    23d2:	02b5      	strh r0,[r0],r5
    23d4:	0000      	beq 23d4 <__HALF_BANK_SIZE_+0x13d4>
    23d6:	0e00      	beq 23f2 <__HALF_BANK_SIZE_+0x13f2>
    23d8:	725f 0500 	*unknown*
    23dc:	4bab 0000 	*unknown*
    23e0:	0400      	beq 23e8 <__HALF_BANK_SIZE_+0x13e8>
    23e2:	5f0e      	asr r2,r7,0x18
    23e4:	0077      	fabs rd,rn
    23e6:	ac05      	ldrb r5,[r3],r0
    23e8:	004b 0000 	*unknown*
    23ec:	0b08 07d6 	beq fd002 <__stack_start_+0xf5012>
    23f0:	0000      	beq 23f0 <__HALF_BANK_SIZE_+0x13f0>
    23f2:	ad05      	ldrb r5,[r3],r2
    23f4:	003d 0000 	strh r0,[r0],+r0
    23f8:	0b0c 087b 	ldrb r0,[r18,+0x3de]
    23fc:	0000      	beq 23fc <__HALF_BANK_SIZE_+0x13fc>
    23fe:	ae05      	ldrb r5,[r3],r4
    2400:	003d 0000 	strh r0,[r0],+r0
    2404:	0e0e      	asr r0,r3,0x10
    2406:	625f 0066 	*unknown*
    240a:	af05      	ldrb r5,[r3],r6
    240c:	0290      	blte 2410 <__HALF_BANK_SIZE_+0x1410>
    240e:	0000      	beq 240e <__HALF_BANK_SIZE_+0x140e>
    2410:	0b10      	bne 2426 <__HALF_BANK_SIZE_+0x1426>
    2412:	0760      	bgt 2420 <__HALF_BANK_SIZE_+0x1420>
    2414:	0000      	beq 2414 <__HALF_BANK_SIZE_+0x1414>
    2416:	b005      	ldrb r5,[r4],r0
    2418:	004b 0000 	*unknown*
    241c:	0b18 07c6 	bne fb032 <__stack_start_+0xf3042>
    2420:	0000      	beq 2420 <__HALF_BANK_SIZE_+0x1420>
    2422:	b705      	ldrb r5,[r5],r6
    2424:	00f6      	lsl r0,r0,0x7
    2426:	0000      	beq 2426 <__HALF_BANK_SIZE_+0x1426>
    2428:	0b1c 06cf 	strb r0,[r10],+0x67e
    242c:	0000      	beq 242c <__HALF_BANK_SIZE_+0x142c>
    242e:	b905      	ldrb r5,[r6],r2
    2430:	0548 0000 	blteu 243a <__HALF_BANK_SIZE_+0x143a>
    2434:	0b20      	bgtu 244a <__HALF_BANK_SIZE_+0x144a>
    2436:	0571      	strd r0,[r1,r2]
    2438:	0000      	beq 2438 <__HALF_BANK_SIZE_+0x1438>
    243a:	bb05      	ldrb r5,[r6],r6
    243c:	0577      	fabs rd,rn
    243e:	0000      	beq 243e <__HALF_BANK_SIZE_+0x143e>
    2440:	0b24      	ldrh r0,[r2,0x6]
    2442:	0a3b 0000 	sub r0,r2,4
    2446:	bd05      	ldrb r5,[r7],r2
    2448:	059b 0000 	add r0,r1,3
    244c:	0b28 0b4a 	bgtu 16b862 <__PROG_SIZE_FOR_CORE_+0x6b862>
    2450:	0000      	beq 2450 <__HALF_BANK_SIZE_+0x1450>
    2452:	be05      	ldrb r5,[r7],r4
    2454:	05b5      	strh r0,[r1],r3
    2456:	0000      	beq 2456 <__HALF_BANK_SIZE_+0x1456>
    2458:	0e2c 755f 	ldrh r24,[r43,-0x2fc]
    245c:	0062      	movgt r0,r0
    245e:	c105      	ldrb r6,[r0],r2
    2460:	0290      	blte 2464 <__HALF_BANK_SIZE_+0x1464>
    2462:	0000      	beq 2462 <__HALF_BANK_SIZE_+0x1462>
    2464:	0e30      	bgteu 2480 <__HALF_BANK_SIZE_+0x1480>
    2466:	755f 0070 	*unknown*
    246a:	c205      	ldrb r6,[r0],r4
    246c:	02b5      	strh r0,[r0],r5
    246e:	0000      	beq 246e <__HALF_BANK_SIZE_+0x146e>
    2470:	0e38 755f 	bgteu eae28c <__PROG_SIZE_FOR_CORE_+0xdae28c>
    2474:	0072      	movgte r0,r0
    2476:	c305      	ldrb r6,[r0],r6
    2478:	004b 0000 	*unknown*
    247c:	0b3c 079d 	strh r0,[r10],-0x4ee
    2480:	0000      	beq 2480 <__HALF_BANK_SIZE_+0x1480>
    2482:	c605      	ldrb r6,[r1],r4
    2484:	05bb 0000 	sub r0,r1,3
    2488:	0b40      	blteu 249e <__HALF_BANK_SIZE_+0x149e>
    248a:	0b22 0000 	*unknown*
    248e:	c705      	ldrb r6,[r1],r6
    2490:	05cb 0000 	*unknown*
    2494:	0e43      	mov r0,0x72
    2496:	6c5f 0062 	*unknown*
    249a:	ca05      	ldrb r6,[r2],r4
    249c:	0290      	blte 24a0 <__HALF_BANK_SIZE_+0x14a0>
    249e:	0000      	beq 249e <__HALF_BANK_SIZE_+0x149e>
    24a0:	0b48 07f1 	blteu 1006b6 <__PROG_SIZE_FOR_CORE_+0x6b6>
    24a4:	0000      	beq 24a4 <__HALF_BANK_SIZE_+0x14a4>
    24a6:	cd05      	ldrb r6,[r3],r2
    24a8:	004b 0000 	*unknown*
    24ac:	0b50      	bltu 24c2 <__HALF_BANK_SIZE_+0x14c2>
    24ae:	0802      	moveq r0,r2
    24b0:	0000      	beq 24b0 <__HALF_BANK_SIZE_+0x14b0>
    24b2:	ce05      	ldrb r6,[r3],r4
    24b4:	004b 0000 	*unknown*
    24b8:	0b54      	str r0,[r2,0x6]
    24ba:	0b79 0000 	strd r0,[r2,+r6]
    24be:	d105      	ldrb r6,[r4],r2
    24c0:	0403      	mov r0,0x20
    24c2:	0000      	beq 24c2 <__HALF_BANK_SIZE_+0x14c2>
    24c4:	0b58 08d2 	bltu 11c8da <__PROG_SIZE_FOR_CORE_+0x1c8da>
    24c8:	0000      	beq 24c8 <__HALF_BANK_SIZE_+0x14c8>
    24ca:	d505      	ldrb r6,[r5],r2
    24cc:	00eb 0000 	*unknown*
    24d0:	0b5c 09d1 	str r0,[r18,-0x68e]
    24d4:	0000      	beq 24d4 <__HALF_BANK_SIZE_+0x14d4>
    24d6:	d705      	ldrb r6,[r5],r6
    24d8:	00e0      	b 24d8 <__HALF_BANK_SIZE_+0x14d8>
    24da:	0000      	beq 24da <__HALF_BANK_SIZE_+0x14da>
    24dc:	0b60      	bgt 24f2 <__HALF_BANK_SIZE_+0x14f2>
    24de:	08d8 0000 	bblte 24ee <__HALF_BANK_SIZE_+0x14ee>
    24e2:	d805      	ldrb r6,[r6],r0
    24e4:	004b 0000 	*unknown*
    24e8:	0068 4b13 	bgt 964ae8 <__PROG_SIZE_FOR_CORE_+0x864ae8>
    24ec:	0000      	beq 24ec <__HALF_BANK_SIZE_+0x14ec>
    24ee:	0300      	beq 24f4 <__HALF_BANK_SIZE_+0x14f4>
    24f0:	0004      	ldrb r0,[r0]
    24f2:	1400      	beq 251a <__HALF_BANK_SIZE_+0x151a>
    24f4:	0403      	mov r0,0x20
    24f6:	0000      	beq 24f6 <__HALF_BANK_SIZE_+0x14f6>
    24f8:	f614      	strb r7,[r5,0x4]
    24fa:	0000      	beq 24fa <__HALF_BANK_SIZE_+0x14fa>
    24fc:	1400      	beq 2524 <__HALF_BANK_SIZE_+0x1524>
    24fe:	053b 0000 	sub r0,r1,2
    2502:	4b14      	strb r2,[r2,0x6]
    2504:	0000      	beq 2504 <__HALF_BANK_SIZE_+0x1504>
    2506:	0000      	beq 2506 <__HALF_BANK_SIZE_+0x1506>
    2508:	040f 0409 	*unknown*
    250c:	0000      	beq 250c <__HALF_BANK_SIZE_+0x150c>
    250e:	1e15      	strb r0,[r7],r4
    2510:	000a      	eor r0,r0,r0
    2512:	4800      	beq 25a2 <__HALF_BANK_SIZE_+0x15a2>
    2514:	0504      	ldrb r0,[r1,0x2]
    2516:	0244      	ldr r0,[r0,0x4]
    2518:	053b 0000 	sub r0,r1,2
    251c:	8f16      	lsl r4,r3,0x18
    251e:	0009 0500 	ldrb r0,[r8,+r16]
    2522:	0246      	lsr r0,r0,0x12
    2524:	004b 0000 	*unknown*
    2528:	1600      	beq 2554 <__HALF_BANK_SIZE_+0x1554>
    252a:	07e5      	ldrd r0,[r1],r7
    252c:	0000      	beq 252c <__HALF_BANK_SIZE_+0x152c>
    252e:	4b05      	ldrb r2,[r2],r6
    2530:	2202 0006 	*unknown*
    2534:	0400      	beq 253c <__HALF_BANK_SIZE_+0x153c>
    2536:	6b16      	lsl r3,r2,0x18
    2538:	0008 0500 	beq a2538 <__stack_start_+0x9a548>
    253c:	024b 0622 	mov r0,0x6212
    2540:	0000      	beq 2540 <__HALF_BANK_SIZE_+0x1540>
    2542:	1608 0845 	beq 10af6e <__PROG_SIZE_FOR_CORE_+0xaf6e>
    2546:	0000      	beq 2546 <__HALF_BANK_SIZE_+0x1546>
    2548:	4b05      	ldrb r2,[r2],r6
    254a:	2202 0006 	*unknown*
    254e:	0c00      	beq 2566 <__HALF_BANK_SIZE_+0x1566>
    2550:	f216      	lsl r7,r4,0x10
    2552:	0009 0500 	ldrb r0,[r8,+r16]
    2556:	024d 004b 	*unknown*
    255a:	0000      	beq 255a <__HALF_BANK_SIZE_+0x155a>
    255c:	1610      	bne 2588 <__HALF_BANK_SIZE_+0x1588>
    255e:	071e 0000 	*unknown*
    2562:	4e05      	ldrb r2,[r3],r4
    2564:	0402      	moveq r0,r1
    2566:	0008 1400 	beq 282566 <__PROG_SIZE_FOR_CORE_+0x182566>
    256a:	9b16      	lsl r4,r6,0x18
    256c:	000a      	eor r0,r0,r0
    256e:	0500      	beq 2578 <__HALF_BANK_SIZE_+0x1578>
    2570:	0250      	bltu 2574 <__HALF_BANK_SIZE_+0x1574>
    2572:	004b 0000 	*unknown*
    2576:	1630      	bgteu 25a2 <__HALF_BANK_SIZE_+0x15a2>
    2578:	09fc 0000 	strd r0,[r2,+0x3]
    257c:	5105      	ldrb r2,[r4],r2
    257e:	6c02      	moveq r3,r3
    2580:	0005      	ldrb r0,[r0],r0
    2582:	3400      	beq 25ea <__HALF_BANK_SIZE_+0x15ea>
    2584:	0216      	lsl r0,r0,0x10
    2586:	0009 0500 	ldrb r0,[r8,+r16]
    258a:	0253 004b 	*unknown*
    258e:	0000      	beq 258e <__HALF_BANK_SIZE_+0x158e>
    2590:	1638 0a0c 	bgteu 143dbc <__PROG_SIZE_FOR_CORE_+0x43dbc>
    2594:	0000      	beq 2594 <__HALF_BANK_SIZE_+0x1594>
    2596:	5505      	ldrb r2,[r5],r2
    2598:	1f02 0008 	*unknown*
    259c:	3c00      	beq 2614 <__HALF_BANK_SIZE_+0x1614>
    259e:	bd16      	lsl r5,r7,0x8
    25a0:	0008 0500 	beq a25a0 <__stack_start_+0x9a5b0>
    25a4:	0258 0156 	bltu 2d1a8 <__stack_start_+0x251b8>
    25a8:	0000      	beq 25a8 <__HALF_BANK_SIZE_+0x15a8>
    25aa:	1640      	blteu 25d6 <__HALF_BANK_SIZE_+0x15d6>
    25ac:	0855      	str r0,[r2],r0
    25ae:	0000      	beq 25ae <__HALF_BANK_SIZE_+0x15ae>
    25b0:	5905      	ldrb r2,[r6],r2
    25b2:	4b02 0000 	*unknown*
    25b6:	4400      	beq 263e <__HALF_BANK_SIZE_+0x163e>
    25b8:	6416      	lsl r3,r1,0x0
    25ba:	000b 0500 	*unknown*
    25be:	025a      	and r0,r0,r4
    25c0:	0156      	lsl r0,r0,0xa
    25c2:	0000      	beq 25c2 <__HALF_BANK_SIZE_+0x15c2>
    25c4:	1648 091c 	blteu 125df0 <__PROG_SIZE_FOR_CORE_+0x25df0>
    25c8:	0000      	beq 25c8 <__HALF_BANK_SIZE_+0x15c8>
    25ca:	5b05      	ldrb r2,[r6],r6
    25cc:	2502      	movts status,r1
    25ce:	0008 4c00 	beq 9825ce <__PROG_SIZE_FOR_CORE_+0x8825ce>
    25d2:	7316      	lsl r3,r4,0x18
    25d4:	0008 0500 	beq a25d4 <__stack_start_+0x9a5e4>
    25d8:	025e 004b 	*unknown*
    25dc:	0000      	beq 25dc <__HALF_BANK_SIZE_+0x15dc>
    25de:	1650      	bltu 260a <__HALF_BANK_SIZE_+0x160a>
    25e0:	07fa      	orr r0,r1,r7
    25e2:	0000      	beq 25e2 <__HALF_BANK_SIZE_+0x15e2>
    25e4:	5f05      	ldrb r2,[r7],r6
    25e6:	3b02 0005 	*unknown*
    25ea:	5400      	beq 2692 <__HALF_BANK_SIZE_+0x1692>
    25ec:	8816      	lsl r4,r2,0x0
    25ee:	0009 0500 	ldrb r0,[r8,+r16]
    25f2:	0282 07e2 	*unknown*
    25f6:	0000      	beq 25f6 <__HALF_BANK_SIZE_+0x15f6>
    25f8:	1758 08fa 	bltu 121a26 <__PROG_SIZE_FOR_CORE_+0x21a26>
    25fc:	0000      	beq 25fc <__HALF_BANK_SIZE_+0x15fc>
    25fe:	8505      	ldrb r4,[r1],r2
    2600:	7302 0002 	*unknown*
    2604:	4800      	beq 2694 <__HALF_BANK_SIZE_+0x1694>
    2606:	1701      	ldrb r0,[r5,r6]
    2608:	089b 0000 	add r0,r2,1
    260c:	8605      	ldrb r4,[r1],r4
    260e:	3502      	movts lc,r1
    2610:	0002      	moveq r0,r0
    2612:	5000      	beq 26b2 <__HALF_BANK_SIZE_+0x16b2>
    2614:	1701      	ldrb r0,[r5,r6]
    2616:	0b18 0000 	bne 262c <__HALF_BANK_SIZE_+0x162c>
    261a:	8905      	ldrb r4,[r2],r2
    261c:	3602 0008 	*unknown*
    2620:	e000      	beq 25e0 <__HALF_BANK_SIZE_+0x15e0>
    2622:	1702 07ce 	*unknown*
    2626:	0000      	beq 2626 <__HALF_BANK_SIZE_+0x1626>
    2628:	8e05      	ldrb r4,[r3],r4
    262a:	e702 0005 	*unknown*
    262e:	e800      	beq 25fe <__HALF_BANK_SIZE_+0x15fe>
    2630:	1702 07b3 	*unknown*
    2634:	0000      	beq 2634 <__HALF_BANK_SIZE_+0x1634>
    2636:	8f05      	ldrb r4,[r3],r6
    2638:	4202 0008 	*unknown*
    263c:	f800      	beq 262c <__HALF_BANK_SIZE_+0x162c>
    263e:	0002      	moveq r0,r0
    2640:	040f 0541 	*unknown*
    2644:	0000      	beq 2644 <__HALF_BANK_SIZE_+0x1644>
    2646:	0102      	movts config,r0
    2648:	8308 0009 	beq 394e <__HALF_BANK_SIZE_+0x294e>
    264c:	0f00      	beq 266a <__HALF_BANK_SIZE_+0x166a>
    264e:	e504      	ldrb r7,[r1,0x2]
    2650:	0003      	mov r0,0x0
    2652:	1300      	beq 2678 <__HALF_BANK_SIZE_+0x1678>
    2654:	004b 0000 	*unknown*
    2658:	056c 0000 	ldrd r0,[r1,+0x2]
    265c:	0314      	strb r0,[r0,0x6]
    265e:	0004      	ldrb r0,[r0]
    2660:	1400      	beq 2688 <__HALF_BANK_SIZE_+0x1688>
    2662:	00f6      	lsl r0,r0,0x7
    2664:	0000      	beq 2664 <__HALF_BANK_SIZE_+0x1664>
    2666:	6c14      	strb r3,[r3]
    2668:	0005      	ldrb r0,[r0],r0
    266a:	1400      	beq 2692 <__HALF_BANK_SIZE_+0x1692>
    266c:	004b 0000 	*unknown*
    2670:	0f00      	beq 268e <__HALF_BANK_SIZE_+0x168e>
    2672:	7204      	ldrb r3,[r4,0x4]
    2674:	0005      	ldrb r0,[r0],r0
    2676:	1800      	beq 26a6 <__HALF_BANK_SIZE_+0x16a6>
    2678:	0541      	ldr r0,[r1,r2]
    267a:	0000      	beq 267a <__HALF_BANK_SIZE_+0x167a>
    267c:	040f 054e 	*unknown*
    2680:	0000      	beq 2680 <__HALF_BANK_SIZE_+0x1680>
    2682:	7213      	add r3,r4,-4
    2684:	0000      	beq 2684 <__HALF_BANK_SIZE_+0x1684>
    2686:	9b00      	beq 25bc <__HALF_BANK_SIZE_+0x15bc>
    2688:	0005      	ldrb r0,[r0],r0
    268a:	1400      	beq 26b2 <__HALF_BANK_SIZE_+0x16b2>
    268c:	0403      	mov r0,0x20
    268e:	0000      	beq 268e <__HALF_BANK_SIZE_+0x168e>
    2690:	f614      	strb r7,[r5,0x4]
    2692:	0000      	beq 2692 <__HALF_BANK_SIZE_+0x1692>
    2694:	1400      	beq 26bc <__HALF_BANK_SIZE_+0x16bc>
    2696:	0072      	movgte r0,r0
    2698:	0000      	beq 2698 <__HALF_BANK_SIZE_+0x1698>
    269a:	4b14      	strb r2,[r2,0x6]
    269c:	0000      	beq 269c <__HALF_BANK_SIZE_+0x169c>
    269e:	0000      	beq 269e <__HALF_BANK_SIZE_+0x169e>
    26a0:	040f 057d 	*unknown*
    26a4:	0000      	beq 26a4 <__HALF_BANK_SIZE_+0x16a4>
    26a6:	4b13      	add r2,r2,-2
    26a8:	0000      	beq 26a8 <__HALF_BANK_SIZE_+0x16a8>
    26aa:	b500      	beq 2614 <__HALF_BANK_SIZE_+0x1614>
    26ac:	0005      	ldrb r0,[r0],r0
    26ae:	1400      	beq 26d6 <__HALF_BANK_SIZE_+0x16d6>
    26b0:	0403      	mov r0,0x20
    26b2:	0000      	beq 26b2 <__HALF_BANK_SIZE_+0x16b2>
    26b4:	f614      	strb r7,[r5,0x4]
    26b6:	0000      	beq 26b6 <__HALF_BANK_SIZE_+0x16b6>
    26b8:	0000      	beq 26b8 <__HALF_BANK_SIZE_+0x16b8>
    26ba:	040f 05a1 	*unknown*
    26be:	0000      	beq 26be <__HALF_BANK_SIZE_+0x16be>
    26c0:	3608 0000 	beq 272c <__HALF_BANK_SIZE_+0x172c>
    26c4:	cb00      	beq 265a <__HALF_BANK_SIZE_+0x165a>
    26c6:	0005      	ldrb r0,[r0],r0
    26c8:	0900      	beq 26da <__HALF_BANK_SIZE_+0x16da>
    26ca:	00b8 0000 	bbne 26ca <__HALF_BANK_SIZE_+0x16ca>
    26ce:	0002      	moveq r0,r0
    26d0:	3608 0000 	beq 273c <__HALF_BANK_SIZE_+0x173c>
    26d4:	db00      	beq 268a <__HALF_BANK_SIZE_+0x168a>
    26d6:	0005      	ldrb r0,[r0],r0
    26d8:	0900      	beq 26ea <__HALF_BANK_SIZE_+0x16ea>
    26da:	00b8 0000 	bbne 26da <__HALF_BANK_SIZE_+0x16da>
    26de:	0000      	beq 26de <__HALF_BANK_SIZE_+0x16de>
    26e0:	b705      	ldrb r5,[r5],r6
    26e2:	0009 0500 	ldrb r0,[r8,+r16]
    26e6:	0111      	strb r0,[r0,r2]
    26e8:	02bb 0000 	sub r0,r0,5
    26ec:	ff19 000a 	*unknown*
    26f0:	1000      	beq 2710 <__HALF_BANK_SIZE_+0x1710>
    26f2:	1505      	ldrb r0,[r5],r2
    26f4:	1c01      	ldrb r0,[r7,r0]
    26f6:	0006      	lsr r0,r0,0x0
    26f8:	1600      	beq 2724 <__HALF_BANK_SIZE_+0x1724>
    26fa:	09df 0000 	*unknown*
    26fe:	1705      	ldrb r0,[r5],r6
    2700:	1c01      	ldrb r0,[r7,r0]
    2702:	0006      	lsr r0,r0,0x0
    2704:	0000      	beq 2704 <__HALF_BANK_SIZE_+0x1704>
    2706:	8116      	lsl r4,r0,0x8
    2708:	0008 0500 	beq a2708 <__stack_start_+0x9a718>
    270c:	0118 004b 	bne bd0e <__stack_start_+0x3d1e>
    2710:	0000      	beq 2710 <__HALF_BANK_SIZE_+0x1710>
    2712:	1604      	ldrb r0,[r5,0x4]
    2714:	09b1      	strh r0,[r2,r3]
    2716:	0000      	beq 2716 <__HALF_BANK_SIZE_+0x1716>
    2718:	1905      	ldrb r0,[r6],r2
    271a:	2201      	ldrb r1,[r0,r4]
    271c:	0006      	lsr r0,r0,0x0
    271e:	0800      	beq 272e <__HALF_BANK_SIZE_+0x172e>
    2720:	0f00      	beq 273e <__HALF_BANK_SIZE_+0x173e>
    2722:	e704      	ldrb r7,[r1,0x6]
    2724:	0005      	ldrb r0,[r0],r0
    2726:	0f00      	beq 2744 <__HALF_BANK_SIZE_+0x1744>
    2728:	db04      	ldrb r6,[r6,0x6]
    272a:	0005      	ldrb r0,[r0],r0
    272c:	1900      	beq 275e <__HALF_BANK_SIZE_+0x175e>
    272e:	0716      	lsl r0,r1,0x18
    2730:	0000      	beq 2730 <__HALF_BANK_SIZE_+0x1730>
    2732:	0510      	bne 273c <__HALF_BANK_SIZE_+0x173c>
    2734:	0131      	strh r0,[r0,r2]
    2736:	065d 0000 	str r0,[r1],+r4
    273a:	2516      	lsl r1,r1,0x8
    273c:	000a      	eor r0,r0,r0
    273e:	0500      	beq 2748 <__HALF_BANK_SIZE_+0x1748>
    2740:	0132 065d 	*unknown*
    2744:	0000      	beq 2744 <__HALF_BANK_SIZE_+0x1744>
    2746:	1600      	beq 2772 <__HALF_BANK_SIZE_+0x1772>
    2748:	0a52 0000 	*unknown*
    274c:	3305      	ldrb r1,[r4],r6
    274e:	5d01      	ldrb r2,[r7,r2]
    2750:	0006      	lsr r0,r0,0x0
    2752:	0600      	beq 275e <__HALF_BANK_SIZE_+0x175e>
    2754:	6e16      	lsl r3,r3,0x10
    2756:	000a      	eor r0,r0,r0
    2758:	0500      	beq 2762 <__HALF_BANK_SIZE_+0x1762>
    275a:	0134      	strh r0,[r0,0x2]
    275c:	0044      	ldr r0,[r0]
    275e:	0000      	beq 275e <__HALF_BANK_SIZE_+0x175e>
    2760:	000c 4408 	ldrb r16,[r8,+0x40]
    2764:	0000      	beq 2764 <__HALF_BANK_SIZE_+0x1764>
    2766:	6d00      	beq 2840 <__HALF_BANK_SIZE_+0x1840>
    2768:	0006      	lsr r0,r0,0x0
    276a:	0900      	beq 277c <__HALF_BANK_SIZE_+0x177c>
    276c:	00b8 0000 	bbne 276c <__HALF_BANK_SIZE_+0x176c>
    2770:	0002      	moveq r0,r0
    2772:	e01a      	add r7,r0,r0
    2774:	6305      	ldrb r3,[r0],r6
    2776:	6e02 0007 	*unknown*
    277a:	1600      	beq 27a6 <__HALF_BANK_SIZE_+0x17a6>
    277c:	0ae3      	mov r0,0x57
    277e:	0000      	beq 277e <__HALF_BANK_SIZE_+0x177e>
    2780:	6505      	ldrb r3,[r1],r2
    2782:	2802      	moveq r1,r2
    2784:	0000      	beq 2784 <__HALF_BANK_SIZE_+0x1784>
    2786:	0000      	beq 2786 <__HALF_BANK_SIZE_+0x1786>
    2788:	5816      	lsl r2,r6,0x0
    278a:	000a      	eor r0,r0,r0
    278c:	0500      	beq 2796 <__HALF_BANK_SIZE_+0x1796>
    278e:	0266      	lsr r0,r0,0x13
    2790:	053b 0000 	sub r0,r1,2
    2794:	1604      	ldrb r0,[r5,0x4]
    2796:	08b0      	bbne 27a6 <__HALF_BANK_SIZE_+0x17a6>
    2798:	0000      	beq 2798 <__HALF_BANK_SIZE_+0x1798>
    279a:	6705      	ldrb r3,[r1],r6
    279c:	6e02 0007 	*unknown*
    27a0:	0800      	beq 27b0 <__HALF_BANK_SIZE_+0x17b0>
    27a2:	3b16      	lsl r1,r6,0x18
    27a4:	000b 0500 	*unknown*
    27a8:	0268 016c 	bgt 2ffac <__stack_start_+0x27fbc>
    27ac:	0000      	beq 27ac <__HALF_BANK_SIZE_+0x17ac>
    27ae:	1628 090d 	bgtu 1241da <__PROG_SIZE_FOR_CORE_+0x241da>
    27b2:	0000      	beq 27b2 <__HALF_BANK_SIZE_+0x17b2>
    27b4:	6905      	ldrb r3,[r2],r2
    27b6:	4b02 0000 	*unknown*
    27ba:	5000      	beq 285a <__HALF_BANK_SIZE_+0x185a>
    27bc:	da16      	lsl r6,r6,0x10
    27be:	0009 0500 	ldrb r0,[r8,+r16]
    27c2:	026a      	asr r0,r0,r4
    27c4:	0059 0000 	str r0,[r0,+r0]
    27c8:	1658 0b51 	bltu 16c9f4 <__PROG_SIZE_FOR_CORE_+0x6c9f4>
    27cc:	0000      	beq 27cc <__HALF_BANK_SIZE_+0x17cc>
    27ce:	6b05      	ldrb r3,[r2],r6
    27d0:	2802      	moveq r1,r2
    27d2:	0006      	lsr r0,r0,0x0
    27d4:	6000      	beq 2894 <__HALF_BANK_SIZE_+0x1894>
    27d6:	e516      	lsl r7,r1,0x8
    27d8:	0009 0500 	ldrb r0,[r8,+r16]
    27dc:	026c 00e0 	ldrd r0,[r0,+0x704]
    27e0:	0000      	beq 27e0 <__HALF_BANK_SIZE_+0x17e0>
    27e2:	1670      	bgte 280e <__HALF_BANK_SIZE_+0x180e>
    27e4:	0b56      	lsl r0,r2,0x1a
    27e6:	0000      	beq 27e6 <__HALF_BANK_SIZE_+0x17e6>
    27e8:	6d05      	ldrb r3,[r3],r2
    27ea:	e002      	moveq r7,r0
    27ec:	0000      	beq 27ec <__HALF_BANK_SIZE_+0x17ec>
    27ee:	7800      	beq 28de <__HALF_BANK_SIZE_+0x18de>
    27f0:	7816      	lsl r3,r6,0x0
    27f2:	0007      	fadd r0,r0,r0
    27f4:	0500      	beq 27fe <__HALF_BANK_SIZE_+0x17fe>
    27f6:	026e      	asr r0,r0,0x13
    27f8:	00e0      	b 27f8 <__HALF_BANK_SIZE_+0x17f8>
    27fa:	0000      	beq 27fa <__HALF_BANK_SIZE_+0x17fa>
    27fc:	1680      	blt 2828 <__HALF_BANK_SIZE_+0x1828>
    27fe:	0b0e      	asr r0,r2,0x18
    2800:	0000      	beq 2800 <__HALF_BANK_SIZE_+0x1800>
    2802:	6f05      	ldrb r3,[r3],r6
    2804:	7e02 0007 	*unknown*
    2808:	8800      	beq 2718 <__HALF_BANK_SIZE_+0x1718>
    280a:	a416      	lsl r5,r1,0x0
    280c:	0008 0500 	beq a280c <__stack_start_+0x9a81c>
    2810:	0270      	bgte 2814 <__HALF_BANK_SIZE_+0x1814>
    2812:	078e      	asr r0,r1,0x1c
    2814:	0000      	beq 2814 <__HALF_BANK_SIZE_+0x1814>
    2816:	1690      	blte 2842 <__HALF_BANK_SIZE_+0x1842>
    2818:	0a7b 0000 	*unknown*
    281c:	7105      	ldrb r3,[r4],r2
    281e:	4b02 0000 	*unknown*
    2822:	a800      	beq 2772 <__HALF_BANK_SIZE_+0x1772>
    2824:	1b16      	lsl r0,r6,0x18
    2826:	0008 0500 	beq a2826 <__stack_start_+0x9a836>
    282a:	0272 00e0 	*unknown*
    282e:	0000      	beq 282e <__HALF_BANK_SIZE_+0x182e>
    2830:	16b0      	bbne 285c <__HALF_BANK_SIZE_+0x185c>
    2832:	0769 0000 	ldrd r0,[r1,+r6]
    2836:	7305      	ldrb r3,[r4],r6
    2838:	e002      	moveq r7,r0
    283a:	0000      	beq 283a <__HALF_BANK_SIZE_+0x183a>
    283c:	b800      	beq 27ac <__HALF_BANK_SIZE_+0x17ac>
    283e:	0a16      	lsl r0,r2,0x10
    2840:	0008 0500 	beq a2840 <__stack_start_+0x9a850>
    2844:	0274      	strd r0,[r0,0x4]
    2846:	00e0      	b 2846 <__HALF_BANK_SIZE_+0x1846>
    2848:	0000      	beq 2848 <__HALF_BANK_SIZE_+0x1848>
    284a:	16c0      	bblt 2876 <__HALF_BANK_SIZE_+0x1876>
    284c:	0729 0000 	ldrh r0,[r1,+r6]
    2850:	7505      	ldrb r3,[r5],r2
    2852:	e002      	moveq r7,r0
    2854:	0000      	beq 2854 <__HALF_BANK_SIZE_+0x1854>
    2856:	c800      	beq 27e6 <__HALF_BANK_SIZE_+0x17e6>
    2858:	3816      	lsl r1,r6,0x0
    285a:	0007      	fadd r0,r0,r0
    285c:	0500      	beq 2866 <__HALF_BANK_SIZE_+0x1866>
    285e:	0276      	lsl r0,r0,0x13
    2860:	00e0      	b 2860 <__HALF_BANK_SIZE_+0x1860>
    2862:	0000      	beq 2862 <__HALF_BANK_SIZE_+0x1862>
    2864:	16d0      	bblte 2890 <__HALF_BANK_SIZE_+0x1890>
    2866:	098d 0000 	ldrb r0,[r2],+r3
    286a:	7705      	ldrb r3,[r5],r6
    286c:	4b02 0000 	*unknown*
    2870:	d800      	beq 2820 <__HALF_BANK_SIZE_+0x1820>
    2872:	0800      	beq 2882 <__HALF_BANK_SIZE_+0x1882>
    2874:	0541      	ldr r0,[r1,r2]
    2876:	0000      	beq 2876 <__HALF_BANK_SIZE_+0x1876>
    2878:	077e 0000 	*unknown*
    287c:	b809 0000 	ldrb r5,[r6,+r0]
    2880:	1900      	beq 28b2 <__HALF_BANK_SIZE_+0x18b2>
    2882:	0800      	beq 2892 <__HALF_BANK_SIZE_+0x1892>
    2884:	0541      	ldr r0,[r1,r2]
    2886:	0000      	beq 2886 <__HALF_BANK_SIZE_+0x1886>
    2888:	078e      	asr r0,r1,0x1c
    288a:	0000      	beq 288a <__HALF_BANK_SIZE_+0x188a>
    288c:	b809 0000 	ldrb r5,[r6,+r0]
    2890:	0700      	beq 289e <__HALF_BANK_SIZE_+0x189e>
    2892:	0800      	beq 28a2 <__HALF_BANK_SIZE_+0x18a2>
    2894:	0541      	ldr r0,[r1,r2]
    2896:	0000      	beq 2896 <__HALF_BANK_SIZE_+0x1896>
    2898:	079e 0000 	*unknown*
    289c:	b809 0000 	ldrb r5,[r6,+r0]
    28a0:	1700      	beq 28ce <__HALF_BANK_SIZE_+0x18ce>
    28a2:	1a00      	beq 28d6 <__HALF_BANK_SIZE_+0x18d6>
    28a4:	05f0      	bl 28ae <__HALF_BANK_SIZE_+0x18ae>
    28a6:	027c 07c2 	strd r0,[r8],-0x614
    28aa:	0000      	beq 28aa <__HALF_BANK_SIZE_+0x18aa>
    28ac:	ea16      	lsl r7,r2,0x10
    28ae:	0008 0500 	beq a28ae <__stack_start_+0x9a8be>
    28b2:	027f 07c2 	*unknown*
    28b6:	0000      	beq 28b6 <__HALF_BANK_SIZE_+0x18b6>
    28b8:	1600      	beq 28e4 <__HALF_BANK_SIZE_+0x18e4>
    28ba:	0b05      	ldrb r0,[r2],r6
    28bc:	0000      	beq 28bc <__HALF_BANK_SIZE_+0x18bc>
    28be:	8005      	ldrb r4,[r0],r0
    28c0:	d202 0007 	*unknown*
    28c4:	7800      	beq 29b4 <__HALF_BANK_SIZE_+0x19b4>
    28c6:	0800      	beq 28d6 <__HALF_BANK_SIZE_+0x18d6>
    28c8:	02b5      	strh r0,[r0],r5
    28ca:	0000      	beq 28ca <__HALF_BANK_SIZE_+0x18ca>
    28cc:	07d2 0000 	*unknown*
    28d0:	b809 0000 	ldrb r5,[r6,+r0]
    28d4:	1d00      	beq 290e <__HALF_BANK_SIZE_+0x190e>
    28d6:	0800      	beq 28e6 <__HALF_BANK_SIZE_+0x18e6>
    28d8:	0028 0000 	bgtu 28d8 <__HALF_BANK_SIZE_+0x18d8>
    28dc:	07e2      	trap 0x1
    28de:	0000      	beq 28de <__HALF_BANK_SIZE_+0x18de>
    28e0:	b809 0000 	ldrb r5,[r6,+r0]
    28e4:	1d00      	beq 291e <__HALF_BANK_SIZE_+0x191e>
    28e6:	1b00      	beq 291c <__HALF_BANK_SIZE_+0x191c>
    28e8:	05f0      	bl 28f2 <__HALF_BANK_SIZE_+0x18f2>
    28ea:	0261      	ldrd r0,[r0,r4]
    28ec:	0804      	ldrb r0,[r2]
    28ee:	0000      	beq 28ee <__HALF_BANK_SIZE_+0x18ee>
    28f0:	1e1c 000a 	strb r0,[r7,+0x54]
    28f4:	0500      	beq 28fe <__HALF_BANK_SIZE_+0x18fe>
    28f6:	0278 066d 	bgte d02fa <__stack_start_+0xc830a>
    28fa:	0000      	beq 28fa <__HALF_BANK_SIZE_+0x18fa>
    28fc:	281c 000b 	strb r1,[r2,+0x58]
    2900:	0500      	beq 290a <__HALF_BANK_SIZE_+0x190a>
    2902:	0281      	ldrb r0,[r0,r5]
    2904:	079e 0000 	*unknown*
    2908:	0800      	beq 2918 <__HALF_BANK_SIZE_+0x1918>
    290a:	0541      	ldr r0,[r1,r2]
    290c:	0000      	beq 290c <__HALF_BANK_SIZE_+0x190c>
    290e:	0814      	strb r0,[r2]
    2910:	0000      	beq 2910 <__HALF_BANK_SIZE_+0x1910>
    2912:	b809 0000 	ldrb r5,[r6,+r0]
    2916:	1800      	beq 2946 <__HALF_BANK_SIZE_+0x1946>
    2918:	1d00      	beq 2952 <__HALF_BANK_SIZE_+0x1952>
    291a:	081f 0000 	*unknown*
    291e:	0314      	strb r0,[r0,0x6]
    2920:	0004      	ldrb r0,[r0]
    2922:	0000      	beq 2922 <__HALF_BANK_SIZE_+0x1922>
    2924:	040f 0814 	*unknown*
    2928:	0000      	beq 2928 <__HALF_BANK_SIZE_+0x1928>
    292a:	040f 0156 	*unknown*
    292e:	0000      	beq 292e <__HALF_BANK_SIZE_+0x192e>
    2930:	361d 0008 	*unknown*
    2934:	1400      	beq 295c <__HALF_BANK_SIZE_+0x195c>
    2936:	004b 0000 	*unknown*
    293a:	0f00      	beq 2958 <__HALF_BANK_SIZE_+0x1958>
    293c:	3c04      	ldrb r1,[r7]
    293e:	0008 0f00 	beq 1e293e <__PROG_SIZE_FOR_CORE_+0xe293e>
    2942:	2b04      	ldrb r1,[r2,0x6]
    2944:	0008 0800 	beq 102944 <__PROG_SIZE_FOR_CORE_+0x2944>
    2948:	05db 0000 	*unknown*
    294c:	0852      	movltu r0,r2
    294e:	0000      	beq 294e <__HALF_BANK_SIZE_+0x194e>
    2950:	b809 0000 	ldrb r5,[r6,+r0]
    2954:	0200      	beq 2958 <__HALF_BANK_SIZE_+0x1958>
    2956:	1e00      	beq 2992 <__HALF_BANK_SIZE_+0x1992>
    2958:	0bc2 0000 	*unknown*
    295c:	4001      	ldrb r2,[r0,r0]
    295e:	00c0      	bblt 295e <__HALF_BANK_SIZE_+0x195e>
    2960:	0000      	beq 2960 <__HALF_BANK_SIZE_+0x1960>
    2962:	0134      	strh r0,[r0,0x2]
    2964:	0000      	beq 2964 <__HALF_BANK_SIZE_+0x1964>
    2966:	9c01      	ldrb r4,[r7,r0]
    2968:	0910      	bne 297a <__HALF_BANK_SIZE_+0x197a>
    296a:	0000      	beq 296a <__HALF_BANK_SIZE_+0x196a>
    296c:	ec1f 0007 	fsub r7,r3,r0
    2970:	0100      	beq 2972 <__HALF_BANK_SIZE_+0x1972>
    2972:	4b40      	blteu 2a08 <__HALF_BANK_SIZE_+0x1a08>
    2974:	0000      	beq 2974 <__HALF_BANK_SIZE_+0x1974>
    2976:	1e00      	beq 29b2 <__HALF_BANK_SIZE_+0x19b2>
    2978:	0000      	beq 2978 <__HALF_BANK_SIZE_+0x1978>
    297a:	2000      	beq 29ba <__HALF_BANK_SIZE_+0x19ba>
    297c:	0064      	ldrd r0,[r0]
    297e:	4001      	ldrb r2,[r0,r0]
    2980:	00f6      	lsl r0,r0,0x7
    2982:	0000      	beq 2982 <__HALF_BANK_SIZE_+0x1982>
    2984:	0057      	float r0,r0
    2986:	0000      	beq 2986 <__HALF_BANK_SIZE_+0x1986>
    2988:	7021      	ldrh r3,[r4,r0]
    298a:	0100      	beq 298c <__HALF_BANK_SIZE_+0x198c>
    298c:	7343      	mov r3,0x9a
    298e:	0002      	moveq r0,r0
    2990:	8e00      	beq 28ac <__HALF_BANK_SIZE_+0x18ac>
    2992:	0000      	beq 2992 <__HALF_BANK_SIZE_+0x1992>
    2994:	2200      	beq 29d8 <__HALF_BANK_SIZE_+0x19d8>
    2996:	0bd3 0000 	*unknown*
    299a:	4401      	ldrb r2,[r1,r0]
    299c:	0910      	bne 29ae <__HALF_BANK_SIZE_+0x19ae>
    299e:	0000      	beq 299e <__HALF_BANK_SIZE_+0x199e>
    29a0:	00b7      	fmadd r0,r0,r1
    29a2:	0000      	beq 29a2 <__HALF_BANK_SIZE_+0x19a2>
    29a4:	c122 0007 	*unknown*
    29a8:	0100      	beq 29aa <__HALF_BANK_SIZE_+0x19aa>
    29aa:	1645      	ldr r0,[r5],r4
    29ac:	0009 e300 	ldrb r56,[r0,+r48]
    29b0:	0000      	beq 29b0 <__HALF_BANK_SIZE_+0x19b0>
    29b2:	2100      	beq 29f4 <__HALF_BANK_SIZE_+0x19f4>
    29b4:	006e      	asr r0,r0,0x3
    29b6:	4601      	ldrb r2,[r1,r4]
    29b8:	004b 0000 	*unknown*
    29bc:	0156      	lsl r0,r0,0xa
    29be:	0000      	beq 29be <__HALF_BANK_SIZE_+0x19be>
    29c0:	6921      	ldrh r3,[r2,r2]
    29c2:	0100      	beq 29c4 <__HALF_BANK_SIZE_+0x19c4>
    29c4:	4b47      	fmsub r2,r2,r6
    29c6:	0000      	beq 29c6 <__HALF_BANK_SIZE_+0x19c6>
    29c8:	7400      	beq 2ab0 <__HALF_BANK_SIZE_+0x1ab0>
    29ca:	0001      	ldrb r0,[r0,r0]
    29cc:	2100      	beq 2a0e <__HALF_BANK_SIZE_+0x1a0e>
    29ce:	6e66      	lsr r3,r3,0x13
    29d0:	0100      	beq 29d2 <__HALF_BANK_SIZE_+0x19d2>
    29d2:	8948 0002 	blteu 2ee4 <__HALF_BANK_SIZE_+0x1ee4>
    29d6:	c700      	beq 2964 <__HALF_BANK_SIZE_+0x1964>
    29d8:	0001      	ldrb r0,[r0,r0]
    29da:	2300      	beq 2a20 <__HALF_BANK_SIZE_+0x1a20>
    29dc:	0c24      	ldrh r0,[r3]
    29de:	0000      	beq 29de <__HALF_BANK_SIZE_+0x19de>
    29e0:	4f01      	ldrb r2,[r3,r6]
    29e2:	0024      	ldrh r0,[r0]
    29e4:	0000      	beq 29e4 <__HALF_BANK_SIZE_+0x19e4>
    29e6:	0300      	beq 29ec <__HALF_BANK_SIZE_+0x19ec>
    29e8:	0009 2100 	ldrb r8,[r0,+r16]
    29ec:	6e69 0064 	*unknown*
    29f0:	5c01      	ldrb r2,[r7,r0]
    29f2:	004b 0000 	*unknown*
    29f6:	01f0      	bl 29f8 <__HALF_BANK_SIZE_+0x19f8>
    29f8:	0000      	beq 29f8 <__HALF_BANK_SIZE_+0x19f8>
    29fa:	7425      	ldrh r3,[r5],r0
    29fc:	0001      	ldrb r0,[r0,r0]
    29fe:	2600      	beq 2a4a <__HALF_BANK_SIZE_+0x1a4a>
    2a00:	5001      	ldrb r2,[r4,r0]
    2a02:	9203      	mov r4,0x90
    2a04:	0020      	bgtu 2a04 <__HALF_BANK_SIZE_+0x1a04>
    2a06:	0000      	beq 2a06 <__HALF_BANK_SIZE_+0x1a06>
    2a08:	dc25      	ldrh r6,[r7],r0
    2a0a:	0001      	ldrb r0,[r0,r0]
    2a0c:	2600      	beq 2a58 <__HALF_BANK_SIZE_+0x1a58>
    2a0e:	5001      	ldrb r2,[r4,r0]
    2a10:	7702 0000 	*unknown*
    2a14:	0f00      	beq 2a32 <__HALF_BANK_SIZE_+0x1a32>
    2a16:	7304      	ldrb r3,[r4,0x6]
    2a18:	0002      	moveq r0,r0
    2a1a:	0f00      	beq 2a38 <__HALF_BANK_SIZE_+0x1a38>
    2a1c:	e504      	ldrb r7,[r1,0x2]
    2a1e:	0001      	ldrb r0,[r0,r0]
    2a20:	2700      	beq 2a6e <__HALF_BANK_SIZE_+0x1a6e>
    2a22:	0a88 0000 	blt 2a36 <__HALF_BANK_SIZE_+0x1a36>
    2a26:	3305      	ldrb r1,[r4],r6
    2a28:	2803      	mov r1,0x40
    2a2a:	0009 1800 	ldrb r0,[r48,+r0]
    2a2e:	0403      	mov r0,0x20
    2a30:	0000 	beq 2a30 <__HALF_BANK_SIZE_+0x1a30>
	...

Disassembly of section .debug_abbrev:

00000000 <.debug_abbrev>:
   0:	1101      	ldrb r0,[r4,r2]
   2:	2501      	ldrb r1,[r1,r2]
   4:	130e      	asr r0,r4,0x18
   6:	030b 1b0e 	*unknown*
   a:	110e      	asr r0,r4,0x8
   c:	1201      	ldrb r0,[r4,r4]
   e:	1006      	lsr r0,r4,0x0
  10:	0017      	fsub r0,r0,r0
  12:	0200      	beq 16 <__CORE_COL_+0xe>
  14:	0024      	ldrh r0,[r0]
  16:	0b0b 0b3e 	*unknown*
  1a:	0e03      	mov r0,0x70
  1c:	0000      	beq 1c <__CORE_COL_+0x14>
  1e:	1603      	mov r0,0xb0
  20:	0300      	beq 26 <__CORE_ROW_+0x6>
  22:	3a0e      	asr r1,r6,0x10
  24:	3b0b 490b 	*unknown*
  28:	0013      	add r0,r0,0
  2a:	0400      	beq 32 <_e_group_config+0xa>
  2c:	0104      	ldrb r0,[r0,0x2]
  2e:	0b0b 0b3a 	*unknown*
  32:	0b3b 1301 	*unknown*
  36:	0000      	beq 36 <_e_group_config+0xe>
  38:	2805      	ldrb r1,[r2],r0
  3a:	0300      	beq 40 <_e_group_config+0x18>
  3c:	1c0e      	asr r0,r7,0x0
  3e:	000d 0600 	ldrb r0,[r8],+r32
  42:	0113      	add r0,r0,2
  44:	0b0b 0b3a 	*unknown*
  48:	0b3b 1301 	*unknown*
  4c:	0000      	beq 4c <_e_group_config+0x24>
  4e:	0d07      	fadd r0,r3,r2
  50:	0300      	beq 56 <_e_emem_config+0x6>
  52:	3a0e      	asr r1,r6,0x10
  54:	3b0b 490b 	*unknown*
  58:	3813      	add r1,r6,0
  5a:	000b 0800 	*unknown*
  5e:	000f 0b0b 	*unknown*
  62:	0000      	beq 62 <.normal_start+0xa>
  64:	2e09 3f01 	*unknown*
  68:	0319 3a0e 	*unknown*
  6c:	3b0b 270b 	*unknown*
  70:	4919 1113 	*unknown*
  74:	1201      	ldrb r0,[r4,r4]
  76:	4006      	lsr r2,r0,0x0
  78:	9618 1942 	bne 3285a4 <__PROG_SIZE_FOR_CORE_+0x2285a4>
  7c:	1301      	ldrb r0,[r4,r6]
  7e:	0000      	beq 7e <__dma_copy_descriptor_+0x16>
  80:	050a      	eor r0,r1,r2
  82:	0300      	beq 88 <_exit+0x8>
  84:	3a08 3b0b 	beq 7616f8 <__PROG_SIZE_FOR_CORE_+0x6616f8>
  88:	490b 0213 	*unknown*
  8c:	0018 0b00 	bne 16008c <__PROG_SIZE_FOR_CORE_+0x6008c>
  90:	0034      	strh r0,[r0]
  92:	0e03      	mov r0,0x70
  94:	0b3a      	sub r0,r2,r6
  96:	0b3b 1349 	*unknown*
  9a:	1802      	moveq r0,r6
  9c:	0000      	beq 9c <_exit+0x1c>
  9e:	240c 0b00 	ldrb r1,[r17],-0x0
  a2:	3e0b 030b 	*unknown*
  a6:	0008 0d00 	beq 1a00a6 <__PROG_SIZE_FOR_CORE_+0xa00a6>
  aa:	0034      	strh r0,[r0]
  ac:	0e03      	mov r0,0x70
  ae:	0b3a      	sub r0,r2,r6
  b0:	0b3b 1349 	*unknown*
  b4:	193f 1802 	*unknown*
  b8:	0000      	beq b8 <_exit+0x38>
  ba:	010e      	asr r0,r0,0x8
  bc:	4901      	ldrb r2,[r2,r2]
  be:	0113      	add r0,r0,2
  c0:	0013      	add r0,r0,0
  c2:	0f00      	beq e0 <___call_exitprocs+0x20>
  c4:	0021      	ldrh r0,[r0,r0]
  c6:	1349 0b2f 	*unknown*
  ca:	0000      	beq ca <___call_exitprocs+0xa>
  cc:	0100      	beq ce <___call_exitprocs+0xe>
  ce:	0111      	strb r0,[r0,r2]
  d0:	0e25      	ldrh r0,[r3],r4
  d2:	0b13      	add r0,r2,-2
  d4:	0e03      	mov r0,0x70
  d6:	0e1b 0111 	*unknown*
  da:	0612 1710 	*unknown*
  de:	0000      	beq de <___call_exitprocs+0x1e>
  e0:	0402      	moveq r0,r1
  e2:	0b01      	ldrb r0,[r2,r6]
  e4:	3a0b 3b0b 	*unknown*
  e8:	010b 0013 	*unknown*
  ec:	0300      	beq f2 <___call_exitprocs+0x32>
  ee:	0028 0e03 	bgtu 1c06ee <__PROG_SIZE_FOR_CORE_+0xc06ee>
  f2:	0d1c 0000 	strb r0,[r3,+0x2]
  f6:	1604      	ldrb r0,[r5,0x4]
  f8:	0300      	beq fe <___call_exitprocs+0x3e>
  fa:	3a0e      	asr r1,r6,0x10
  fc:	3b0b 490b 	*unknown*
 100:	0013      	add r0,r0,0
 102:	0500      	beq 10c <___call_exitprocs+0x4c>
 104:	0024      	ldrh r0,[r0]
 106:	0b0b 0b3e 	*unknown*
 10a:	0e03      	mov r0,0x70
 10c:	0000      	beq 10c <___call_exitprocs+0x4c>
 10e:	1306      	lsr r0,r4,0x18
 110:	0b01      	ldrb r0,[r2,r6]
 112:	3a0b 3b0b 	*unknown*
 116:	010b 0013 	*unknown*
 11a:	0700      	beq 128 <___call_exitprocs+0x68>
 11c:	000d 0e03 	*unknown*
 120:	0b3a      	sub r0,r2,r6
 122:	0b3b 1349 	*unknown*
 126:	0b38 0000 	bgteu 13c <___call_exitprocs+0x7c>
 12a:	0f08 0b00 	beq 160148 <__PROG_SIZE_FOR_CORE_+0x60148>
 12e:	000b 0900 	*unknown*
 132:	012e      	asr r0,r0,0x9
 134:	193f 0e03 	*unknown*
 138:	0b3a      	sub r0,r2,r6
 13a:	0b3b 1927 	*unknown*
 13e:	1349 0111 	*unknown*
 142:	0612 1840 	*unknown*
 146:	4296      	lsl r2,r0,0x14
 148:	0119 0013 	*unknown*
 14c:	0a00      	beq 160 <___call_exitprocs+0xa0>
 14e:	0005      	ldrb r0,[r0],r0
 150:	0e03      	mov r0,0x70
 152:	0b3a      	sub r0,r2,r6
 154:	0b3b 1349 	*unknown*
 158:	1802      	moveq r0,r6
 15a:	0000      	beq 15a <___call_exitprocs+0x9a>
 15c:	340b 0300 	*unknown*
 160:	3a0e      	asr r1,r6,0x10
 162:	3b0b 490b 	*unknown*
 166:	0213      	add r0,r0,-4
 168:	0018 0c00 	bne 180168 <__PROG_SIZE_FOR_CORE_+0x80168>
 16c:	0024      	ldrh r0,[r0]
 16e:	0b0b 0b3e 	*unknown*
 172:	0803      	mov r0,0x40
 174:	0000      	beq 174 <___call_exitprocs+0xb4>
 176:	0f0d 0b00 	ldrb r0,[r19],+r54
 17a:	490b 0013 	*unknown*
 17e:	0000      	beq 17e <___call_exitprocs+0xbe>
 180:	1101      	ldrb r0,[r4,r2]
 182:	2501      	ldrb r1,[r1,r2]
 184:	130e      	asr r0,r4,0x18
 186:	030b 1b0e 	*unknown*
 18a:	110e      	asr r0,r4,0x8
 18c:	1201      	ldrb r0,[r4,r4]
 18e:	1006      	lsr r0,r4,0x0
 190:	0017      	fsub r0,r0,r0
 192:	0200      	beq 196 <___call_exitprocs+0xd6>
 194:	0104      	ldrb r0,[r0,0x2]
 196:	0b0b 0b3a 	*unknown*
 19a:	0b3b 1301 	*unknown*
 19e:	0000      	beq 19e <___call_exitprocs+0xde>
 1a0:	2803      	mov r1,0x40
 1a2:	0300      	beq 1a8 <___call_exitprocs+0xe8>
 1a4:	1c0e      	asr r0,r7,0x0
 1a6:	000d 0400 	ldrb r0,[r8],+r0
 1aa:	0016      	lsl r0,r0,0x0
 1ac:	0e03      	mov r0,0x70
 1ae:	0b3a      	sub r0,r2,r6
 1b0:	0b3b 1349 	*unknown*
 1b4:	0000      	beq 1b4 <___call_exitprocs+0xf4>
 1b6:	2405      	ldrb r1,[r1],r0
 1b8:	0b00      	beq 1ce <___call_exitprocs+0x10e>
 1ba:	3e0b 030b 	*unknown*
 1be:	000e      	asr r0,r0,0x0
 1c0:	0600      	beq 1cc <___call_exitprocs+0x10c>
 1c2:	0113      	add r0,r0,2
 1c4:	0b0b 0b3a 	*unknown*
 1c8:	0b3b 1301 	*unknown*
 1cc:	0000      	beq 1cc <___call_exitprocs+0x10c>
 1ce:	0d07      	fadd r0,r3,r2
 1d0:	0300      	beq 1d6 <___call_exitprocs+0x116>
 1d2:	3a0e      	asr r1,r6,0x10
 1d4:	3b0b 490b 	*unknown*
 1d8:	3813      	add r1,r6,0
 1da:	000b 0800 	*unknown*
 1de:	012e      	asr r0,r0,0x9
 1e0:	193f 0e03 	*unknown*
 1e4:	0b3a      	sub r0,r2,r6
 1e6:	0b3b 1927 	*unknown*
 1ea:	0111      	strb r0,[r0,r2]
 1ec:	0612 1840 	*unknown*
 1f0:	4296      	lsl r2,r0,0x14
 1f2:	0119 0013 	*unknown*
 1f6:	0900      	beq 208 <_impure_data+0x8>
 1f8:	0005      	ldrb r0,[r0],r0
 1fa:	0e03      	mov r0,0x70
 1fc:	0b3a      	sub r0,r2,r6
 1fe:	0b3b 1349 	*unknown*
 202:	1802      	moveq r0,r6
 204:	0000      	beq 204 <_impure_data+0x4>
 206:	050a      	eor r0,r1,r2
 208:	0300      	beq 20e <_impure_data+0xe>
 20a:	3a08 3b0b 	beq 76187e <__PROG_SIZE_FOR_CORE_+0x66187e>
 20e:	490b 0213 	*unknown*
 212:	0018 0b00 	bne 160212 <__PROG_SIZE_FOR_CORE_+0x60212>
 216:	0034      	strh r0,[r0]
 218:	0e03      	mov r0,0x70
 21a:	0b3a      	sub r0,r2,r6
 21c:	0b3b 1349 	*unknown*
 220:	1802      	moveq r0,r6
 222:	0000      	beq 222 <_impure_data+0x22>
 224:	350c 4900 	ldrb r17,[r21,-0x2]
 228:	0013      	add r0,r0,0
 22a:	0d00      	beq 244 <_impure_data+0x44>
 22c:	000f 0b0b 	*unknown*
 230:	1349 0000 	ldr r0,[r4,+r6]
 234:	340e      	asr r1,r5,0x0
 236:	0300      	beq 23c <_impure_data+0x3c>
 238:	3a0e      	asr r1,r6,0x10
 23a:	3b0b 490b 	*unknown*
 23e:	3f13      	add r1,r7,-2
 240:	3c19 0019 	*unknown*
 244:	0f00      	beq 262 <_impure_data+0x62>
 246:	0026      	lsr r0,r0,0x1
 248:	1349 0000 	ldr r0,[r4,+r6]
 24c:	0100      	beq 24e <_impure_data+0x4e>
 24e:	0111      	strb r0,[r0,r2]
 250:	0e25      	ldrh r0,[r3],r4
 252:	0b13      	add r0,r2,-2
 254:	0e03      	mov r0,0x70
 256:	0e1b 1710 	*unknown*
 25a:	0000      	beq 25a <_impure_data+0x5a>
 25c:	1602 0300 	*unknown*
 260:	3a0e      	asr r1,r6,0x10
 262:	3b0b 490b 	*unknown*
 266:	0013      	add r0,r0,0
 268:	0300      	beq 26e <_impure_data+0x6e>
 26a:	0024      	ldrh r0,[r0]
 26c:	0b0b 0b3e 	*unknown*
 270:	0e03      	mov r0,0x70
 272:	0000      	beq 272 <_impure_data+0x72>
 274:	0404      	ldrb r0,[r1]
 276:	0b01      	ldrb r0,[r2,r6]
 278:	3a0b 3b0b 	*unknown*
 27c:	010b 0013 	*unknown*
 280:	0500      	beq 28a <_impure_data+0x8a>
 282:	0028 0e03 	bgtu 1c0882 <__PROG_SIZE_FOR_CORE_+0xc0882>
 286:	0d1c 0000 	strb r0,[r3,+0x2]
 28a:	1306      	lsr r0,r4,0x18
 28c:	0b01      	ldrb r0,[r2,r6]
 28e:	3a0b 3b0b 	*unknown*
 292:	010b 0013 	*unknown*
 296:	0700      	beq 2a4 <_impure_data+0xa4>
 298:	000d 0e03 	*unknown*
 29c:	0b3a      	sub r0,r2,r6
 29e:	0b3b 1349 	*unknown*
 2a2:	0b38 0000 	bgteu 2b8 <_impure_data+0xb8>
 2a6:	3408 0300 	beq 6030e <__stack_start_+0x5831e>
 2aa:	3a0e      	asr r1,r6,0x10
 2ac:	3b0b 490b 	*unknown*
 2b0:	3f13      	add r1,r7,-2
 2b2:	0219 0018 	*unknown*
 2b6:	0900      	beq 2c8 <_impure_data+0xc8>
 2b8:	0026      	lsr r0,r0,0x1
 2ba:	1349 0000 	ldr r0,[r4,+r6]
 2be:	0100      	beq 2c0 <_impure_data+0xc0>
 2c0:	0111      	strb r0,[r0,r2]
 2c2:	0e25      	ldrh r0,[r3],r4
 2c4:	0b13      	add r0,r2,-2
 2c6:	0e03      	mov r0,0x70
 2c8:	0e1b 0111 	*unknown*
 2cc:	0612 1710 	*unknown*
 2d0:	0000      	beq 2d0 <_impure_data+0xd0>
 2d2:	1602 0300 	*unknown*
 2d6:	3a0e      	asr r1,r6,0x10
 2d8:	3b0b 490b 	*unknown*
 2dc:	0013      	add r0,r0,0
 2de:	0300      	beq 2e4 <_impure_data+0xe4>
 2e0:	0024      	ldrh r0,[r0]
 2e2:	0b0b 0b3e 	*unknown*
 2e6:	0e03      	mov r0,0x70
 2e8:	0000      	beq 2e8 <_impure_data+0xe8>
 2ea:	0404      	ldrb r0,[r1]
 2ec:	0b01      	ldrb r0,[r2,r6]
 2ee:	3a0b 3b0b 	*unknown*
 2f2:	010b 0013 	*unknown*
 2f6:	0500      	beq 300 <_impure_data+0x100>
 2f8:	0028 0e03 	bgtu 1c08f8 <__PROG_SIZE_FOR_CORE_+0xc08f8>
 2fc:	0d1c 0000 	strb r0,[r3,+0x2]
 300:	1306      	lsr r0,r4,0x18
 302:	0b01      	ldrb r0,[r2,r6]
 304:	3a0b 3b0b 	*unknown*
 308:	010b 0013 	*unknown*
 30c:	0700      	beq 31a <_impure_data+0x11a>
 30e:	000d 0e03 	*unknown*
 312:	0b3a      	sub r0,r2,r6
 314:	0b3b 1349 	*unknown*
 318:	0b38 0000 	bgteu 32e <_impure_data+0x12e>
 31c:	2e08 3f01 	beq 7e0578 <__PROG_SIZE_FOR_CORE_+0x6e0578>
 320:	0319 3a0e 	*unknown*
 324:	3b0b 270b 	*unknown*
 328:	4919 1113 	*unknown*
 32c:	1201      	ldrb r0,[r4,r4]
 32e:	4006      	lsr r2,r0,0x0
 330:	9618 1942 	bne 32885c <__PROG_SIZE_FOR_CORE_+0x22885c>
 334:	1301      	ldrb r0,[r4,r6]
 336:	0000      	beq 336 <_impure_data+0x136>
 338:	0509 0300 	ldrb r0,[r1,+r50]
 33c:	3a08 3b0b 	beq 7619b0 <__PROG_SIZE_FOR_CORE_+0x6619b0>
 340:	490b 0213 	*unknown*
 344:	0018 0a00 	bne 140344 <__PROG_SIZE_FOR_CORE_+0x40344>
 348:	0034      	strh r0,[r0]
 34a:	0e03      	mov r0,0x70
 34c:	0b3a      	sub r0,r2,r6
 34e:	0b3b 1349 	*unknown*
 352:	1802      	moveq r0,r6
 354:	0000      	beq 354 <_impure_data+0x154>
 356:	0f0b 0b00 	*unknown*
 35a:	000b 0c00 	*unknown*
 35e:	000f 0b0b 	*unknown*
 362:	1349 0000 	ldr r0,[r4,+r6]
 366:	260d 0000 	ldrb r1,[r1],+r4
 36a:	0e00      	beq 386 <_impure_data+0x186>
 36c:	0034      	strh r0,[r0]
 36e:	0e03      	mov r0,0x70
 370:	0b3a      	sub r0,r2,r6
 372:	0b3b 1349 	*unknown*
 376:	193f 193c 	*unknown*
 37a:	0000      	beq 37a <_impure_data+0x17a>
 37c:	260f 4900 	*unknown*
 380:	0013      	add r0,r0,0
 382:	0000      	beq 382 <_impure_data+0x182>
 384:	1101      	ldrb r0,[r4,r2]
 386:	2501      	ldrb r1,[r1,r2]
 388:	130e      	asr r0,r4,0x18
 38a:	030b 1b0e 	*unknown*
 38e:	110e      	asr r0,r4,0x8
 390:	1201      	ldrb r0,[r4,r4]
 392:	1006      	lsr r0,r4,0x0
 394:	0017      	fsub r0,r0,r0
 396:	0200      	beq 39a <_impure_data+0x19a>
 398:	0104      	ldrb r0,[r0,0x2]
 39a:	0b0b 0b3a 	*unknown*
 39e:	0b3b 1301 	*unknown*
 3a2:	0000      	beq 3a2 <_impure_data+0x1a2>
 3a4:	2803      	mov r1,0x40
 3a6:	0300      	beq 3ac <_impure_data+0x1ac>
 3a8:	1c0e      	asr r0,r7,0x0
 3aa:	000d 0400 	ldrb r0,[r8],+r0
 3ae:	0024      	ldrh r0,[r0]
 3b0:	0b0b 0b3e 	*unknown*
 3b4:	0e03      	mov r0,0x70
 3b6:	0000      	beq 3b6 <_impure_data+0x1b6>
 3b8:	1605      	ldrb r0,[r5],r4
 3ba:	0300      	beq 3c0 <_impure_data+0x1c0>
 3bc:	3a0e      	asr r1,r6,0x10
 3be:	3b0b 490b 	*unknown*
 3c2:	0013      	add r0,r0,0
 3c4:	0600      	beq 3d0 <_impure_data+0x1d0>
 3c6:	012e      	asr r0,r0,0x9
 3c8:	193f 0e03 	*unknown*
 3cc:	0b3a      	sub r0,r2,r6
 3ce:	0b3b 1927 	*unknown*
 3d2:	1349 0111 	*unknown*
 3d6:	0612 1840 	*unknown*
 3da:	4296      	lsl r2,r0,0x14
 3dc:	0119 0013 	*unknown*
 3e0:	0700      	beq 3ee <_impure_data+0x1ee>
 3e2:	0005      	ldrb r0,[r0],r0
 3e4:	0e03      	mov r0,0x70
 3e6:	0b3a      	sub r0,r2,r6
 3e8:	0b3b 1349 	*unknown*
 3ec:	1802      	moveq r0,r6
 3ee:	0000      	beq 3ee <_impure_data+0x1ee>
 3f0:	2408 0b00 	beq 160438 <__PROG_SIZE_FOR_CORE_+0x60438>
 3f4:	3e0b 030b 	*unknown*
 3f8:	0008 0000 	beq 3f8 <_impure_data+0x1f8>
 3fc:	1101      	ldrb r0,[r4,r2]
 3fe:	2501      	ldrb r1,[r1,r2]
 400:	130e      	asr r0,r4,0x18
 402:	030b 1b0e 	*unknown*
 406:	110e      	asr r0,r4,0x8
 408:	1201      	ldrb r0,[r4,r4]
 40a:	1006      	lsr r0,r4,0x0
 40c:	0017      	fsub r0,r0,r0
 40e:	0200      	beq 412 <_impure_data+0x212>
 410:	0104      	ldrb r0,[r0,0x2]
 412:	0b0b 0b3a 	*unknown*
 416:	0b3b 1301 	*unknown*
 41a:	0000      	beq 41a <_impure_data+0x21a>
 41c:	2803      	mov r1,0x40
 41e:	0300      	beq 424 <_impure_data+0x224>
 420:	1c0e      	asr r0,r7,0x0
 422:	000d 0400 	ldrb r0,[r8],+r0
 426:	0016      	lsl r0,r0,0x0
 428:	0e03      	mov r0,0x70
 42a:	0b3a      	sub r0,r2,r6
 42c:	0b3b 1349 	*unknown*
 430:	0000      	beq 430 <_impure_data+0x230>
 432:	2405      	ldrb r1,[r1],r0
 434:	0b00      	beq 44a <_impure_data+0x24a>
 436:	3e0b 030b 	*unknown*
 43a:	000e      	asr r0,r0,0x0
 43c:	0600      	beq 448 <_impure_data+0x248>
 43e:	0113      	add r0,r0,2
 440:	0b0b 0b3a 	*unknown*
 444:	0b3b 1301 	*unknown*
 448:	0000      	beq 448 <_impure_data+0x248>
 44a:	0d07      	fadd r0,r3,r2
 44c:	0300      	beq 452 <_impure_data+0x252>
 44e:	3a0e      	asr r1,r6,0x10
 450:	3b0b 490b 	*unknown*
 454:	3813      	add r1,r6,0
 456:	000b 0800 	*unknown*
 45a:	012e      	asr r0,r0,0x9
 45c:	193f 0e03 	*unknown*
 460:	0b3a      	sub r0,r2,r6
 462:	0b3b 1927 	*unknown*
 466:	1349 0111 	*unknown*
 46a:	0612 1840 	*unknown*
 46e:	4296      	lsl r2,r0,0x14
 470:	0119 0013 	*unknown*
 474:	0900      	beq 486 <_impure_data+0x286>
 476:	0005      	ldrb r0,[r0],r0
 478:	0e03      	mov r0,0x70
 47a:	0b3a      	sub r0,r2,r6
 47c:	0b3b 1349 	*unknown*
 480:	1802      	moveq r0,r6
 482:	0000      	beq 482 <_impure_data+0x282>
 484:	340a      	eor r1,r5,r0
 486:	0300      	beq 48c <_impure_data+0x28c>
 488:	3a0e      	asr r1,r6,0x10
 48a:	3b0b 490b 	*unknown*
 48e:	0213      	add r0,r0,-4
 490:	0018 0b00 	bne 160490 <__PROG_SIZE_FOR_CORE_+0x60490>
 494:	0035      	strh r0,[r0],r0
 496:	1349 0000 	ldr r0,[r4,+r6]
 49a:	0f0c 0b00 	ldrb r0,[r19],-0x6
 49e:	490b 0013 	*unknown*
 4a2:	0d00      	beq 4bc <_impure_data+0x2bc>
 4a4:	0034      	strh r0,[r0]
 4a6:	0e03      	mov r0,0x70
 4a8:	0b3a      	sub r0,r2,r6
 4aa:	0b3b 1349 	*unknown*
 4ae:	193f 193c 	*unknown*
 4b2:	0000      	beq 4b2 <_impure_data+0x2b2>
 4b4:	260e      	asr r1,r1,0x10
 4b6:	4900      	beq 548 <_impure_data+0x348>
 4b8:	0013      	add r0,r0,0
 4ba:	0000      	beq 4ba <_impure_data+0x2ba>
 4bc:	1101      	ldrb r0,[r4,r2]
 4be:	2501      	ldrb r1,[r1,r2]
 4c0:	130e      	asr r0,r4,0x18
 4c2:	030b 1b0e 	*unknown*
 4c6:	110e      	asr r0,r4,0x8
 4c8:	1201      	ldrb r0,[r4,r4]
 4ca:	1006      	lsr r0,r4,0x0
 4cc:	0017      	fsub r0,r0,r0
 4ce:	0200      	beq 4d2 <_impure_data+0x2d2>
 4d0:	0016      	lsl r0,r0,0x0
 4d2:	0e03      	mov r0,0x70
 4d4:	0b3a      	sub r0,r2,r6
 4d6:	0b3b 1349 	*unknown*
 4da:	0000      	beq 4da <_impure_data+0x2da>
 4dc:	2403      	mov r1,0x20
 4de:	0b00      	beq 4f4 <_impure_data+0x2f4>
 4e0:	3e0b 030b 	*unknown*
 4e4:	000e      	asr r0,r0,0x0
 4e6:	0400      	beq 4ee <_impure_data+0x2ee>
 4e8:	012e      	asr r0,r0,0x9
 4ea:	193f 0e03 	*unknown*
 4ee:	0b3a      	sub r0,r2,r6
 4f0:	0b3b 1927 	*unknown*
 4f4:	1349 0111 	*unknown*
 4f8:	0612 1840 	*unknown*
 4fc:	4297      	fsub r2,r0,r5
 4fe:	0019 0500 	strb r0,[r8,+r16]
 502:	0034      	strh r0,[r0]
 504:	0e03      	mov r0,0x70
 506:	0b3a      	sub r0,r2,r6
 508:	0b3b 1349 	*unknown*
 50c:	1802      	moveq r0,r6
 50e:	0000      	beq 50e <_impure_data+0x30e>
 510:	0100      	beq 512 <_impure_data+0x312>
 512:	0111      	strb r0,[r0,r2]
 514:	0e25      	ldrh r0,[r3],r4
 516:	0b13      	add r0,r2,-2
 518:	0e03      	mov r0,0x70
 51a:	0111      	strb r0,[r0,r2]
 51c:	0612 1710 	*unknown*
 520:	0000      	beq 520 <_impure_data+0x320>
 522:	2402      	moveq r1,r1
 524:	0b00      	beq 53a <_impure_data+0x33a>
 526:	3e0b 030b 	*unknown*
 52a:	000e      	asr r0,r0,0x0
 52c:	0300      	beq 532 <_impure_data+0x332>
 52e:	0024      	ldrh r0,[r0]
 530:	0b0b 0b3e 	*unknown*
 534:	0803      	mov r0,0x40
 536:	0000      	beq 536 <_impure_data+0x336>
 538:	1604      	ldrb r0,[r5,0x4]
 53a:	0300      	beq 540 <_impure_data+0x340>
 53c:	3a0e      	asr r1,r6,0x10
 53e:	3b0b 490b 	*unknown*
 542:	0013      	add r0,r0,0
 544:	0500      	beq 54e <_impure_data+0x34e>
 546:	0016      	lsl r0,r0,0x0
 548:	0e03      	mov r0,0x70
 54a:	0b3a      	sub r0,r2,r6
 54c:	053b 1349 	*unknown*
 550:	0000      	beq 550 <_impure_data+0x350>
 552:	1706      	lsr r0,r5,0x18
 554:	0b01      	ldrb r0,[r2,r6]
 556:	3a0b 3b0b 	*unknown*
 55a:	010b 0013 	*unknown*
 55e:	0700      	beq 56c <_impure_data+0x36c>
 560:	000d 0e03 	*unknown*
 564:	0b3a      	sub r0,r2,r6
 566:	0b3b 1349 	*unknown*
 56a:	0000      	beq 56a <_impure_data+0x36a>
 56c:	0108 4901 	beq 92076e <__PROG_SIZE_FOR_CORE_+0x82076e>
 570:	0113      	add r0,r0,2
 572:	0013      	add r0,r0,0
 574:	0900      	beq 586 <_impure_data+0x386>
 576:	0021      	ldrh r0,[r0,r0]
 578:	1349 0b2f 	*unknown*
 57c:	0000      	beq 57c <_impure_data+0x37c>
 57e:	130a      	eor r0,r4,r6
 580:	0b01      	ldrb r0,[r2,r6]
 582:	3a0b 3b0b 	*unknown*
 586:	010b 0013 	*unknown*
 58a:	0b00      	beq 5a0 <_impure_data+0x3a0>
 58c:	000d 0e03 	*unknown*
 590:	0b3a      	sub r0,r2,r6
 592:	0b3b 1349 	*unknown*
 596:	0b38 0000 	bgteu 5ac <_impure_data+0x3ac>
 59a:	0f0c 0b00 	ldrb r0,[r19],-0x6
 59e:	000b 0d00 	*unknown*
 5a2:	0113      	add r0,r0,2
 5a4:	0e03      	mov r0,0x70
 5a6:	0b0b 0b3a 	*unknown*
 5aa:	0b3b 1301 	*unknown*
 5ae:	0000      	beq 5ae <_impure_data+0x3ae>
 5b0:	0d0e      	asr r0,r3,0x8
 5b2:	0300      	beq 5b8 <_impure_data+0x3b8>
 5b4:	3a08 3b0b 	beq 761c28 <__PROG_SIZE_FOR_CORE_+0x661c28>
 5b8:	490b 3813 	*unknown*
 5bc:	000b 0f00 	*unknown*
 5c0:	000f 0b0b 	*unknown*
 5c4:	1349 0000 	ldr r0,[r4,+r6]
 5c8:	1310      	bne 5ee <_impure_data+0x3ee>
 5ca:	0301      	ldrb r0,[r0,r6]
 5cc:	0b0e      	asr r0,r2,0x18
 5ce:	3a05      	ldrb r1,[r6],r4
 5d0:	3b0b 010b 	*unknown*
 5d4:	0013      	add r0,r0,0
 5d6:	1100      	beq 5f8 <_impure_data+0x3f8>
 5d8:	000d 0e03 	*unknown*
 5dc:	0b3a      	sub r0,r2,r6
 5de:	0b3b 1349 	*unknown*
 5e2:	0538 0000 	bgteu 5ec <_impure_data+0x3ec>
 5e6:	1512      	movfs r0,lc
 5e8:	2700      	beq 636 <_impure_data+0x436>
 5ea:	0019 1300 	strb r0,[r32,+r48]
 5ee:	0115      	strb r0,[r0],r2
 5f0:	1927      	fmul r0,r6,r2
 5f2:	1349 1301 	*unknown*
 5f6:	0000      	beq 5f6 <_impure_data+0x3f6>
 5f8:	0514      	strb r0,[r1,0x2]
 5fa:	4900      	beq 68c <_epiphany_start+0xc>
 5fc:	0013      	add r0,r0,0
 5fe:	1500      	beq 628 <_impure_data+0x428>
 600:	0113      	add r0,r0,2
 602:	0e03      	mov r0,0x70
 604:	050b 0b3a 	*unknown*
 608:	053b 1301 	*unknown*
 60c:	0000      	beq 60c <_impure_data+0x40c>
 60e:	0d16      	lsl r0,r3,0x8
 610:	0300      	beq 616 <_impure_data+0x416>
 612:	3a0e      	asr r1,r6,0x10
 614:	3b0b 4905 	*unknown*
 618:	3813      	add r1,r6,0
 61a:	000b 1700 	*unknown*
 61e:	000d 0e03 	*unknown*
 622:	0b3a      	sub r0,r2,r6
 624:	053b 1349 	*unknown*
 628:	0538 0000 	bgteu 632 <_impure_data+0x432>
 62c:	2618 4900 	bne 920678 <__PROG_SIZE_FOR_CORE_+0x820678>
 630:	0013      	add r0,r0,0
 632:	1900      	beq 664 <init+0x16>
 634:	0113      	add r0,r0,2
 636:	0e03      	mov r0,0x70
 638:	0b0b 0b3a 	*unknown*
 63c:	053b 1301 	*unknown*
 640:	0000      	beq 640 <_impure_data+0x440>
 642:	131a      	add r0,r4,r6
 644:	0b01      	ldrb r0,[r2,r6]
 646:	3a0b 3b0b 	*unknown*
 64a:	0105      	ldrb r0,[r0],r2
 64c:	0013      	add r0,r0,0
 64e:	1b00      	beq 684 <_epiphany_start+0x4>
 650:	0117      	fsub r0,r0,r2
 652:	0b0b 0b3a 	*unknown*
 656:	053b 1301 	*unknown*
 65a:	0000      	beq 65a <init+0xc>
 65c:	0d1c 0300 	strb r0,[r3],-0x2
 660:	3a0e      	asr r1,r6,0x10
 662:	3b0b 4905 	*unknown*
 666:	0013      	add r0,r0,0
 668:	1d00      	beq 6a2 <_epiphany_start+0x22>
 66a:	0115      	strb r0,[r0],r2
 66c:	1927      	fmul r0,r6,r2
 66e:	1301      	ldrb r0,[r4,r6]
 670:	0000      	beq 670 <init+0x22>
 672:	2e1e 3f01 	*unknown*
 676:	0319 3a0e 	*unknown*
 67a:	3b0b 270b 	*unknown*
 67e:	1119 1201 	*unknown*
 682:	4006      	lsr r2,r0,0x0
 684:	9618 1942 	bne 328bb0 <__PROG_SIZE_FOR_CORE_+0x228bb0>
 688:	1301      	ldrb r0,[r4,r6]
 68a:	0000      	beq 68a <_epiphany_start+0xa>
 68c:	051f 0300 	*unknown*
 690:	3a0e      	asr r1,r6,0x10
 692:	3b0b 490b 	*unknown*
 696:	0213      	add r0,r0,-4
 698:	0017      	fsub r0,r0,r0
 69a:	2000      	beq 6da <_epiphany_start+0x5a>
 69c:	8289 0101 	*unknown*
 6a0:	0111      	strb r0,[r0,r2]
 6a2:	1301      	ldrb r0,[r4,r6]
 6a4:	0000      	beq 6a4 <_epiphany_start+0x24>
 6a6:	8a21      	ldrh r4,[r2,r4]
 6a8:	0182      	wand
 6aa:	0200      	beq 6ae <_epiphany_start+0x2e>
 6ac:	9118 1842 	bne 308bce <__PROG_SIZE_FOR_CORE_+0x208bce>
 6b0:	0000      	beq 6b0 <_epiphany_start+0x30>
 6b2:	8922 0182 	*unknown*
 6b6:	1101      	ldrb r0,[r4,r2]
 6b8:	0001      	ldrb r0,[r0,r0]
 6ba:	2300      	beq 700 <RDS+0x18>
 6bc:	0034      	strh r0,[r0]
 6be:	0e03      	mov r0,0x70
 6c0:	0b3a      	sub r0,r2,r6
 6c2:	053b 1349 	*unknown*
 6c6:	193f 193c 	*unknown*
 6ca:	0000      	beq 6ca <_epiphany_start+0x4a>
 6cc:	0100      	beq 6ce <_epiphany_start+0x4e>
 6ce:	0111      	strb r0,[r0,r2]
 6d0:	0e25      	ldrh r0,[r3],r4
 6d2:	0b13      	add r0,r2,-2
 6d4:	0e03      	mov r0,0x70
 6d6:	1710      	bne 704 <RDS+0x1c>
 6d8:	0000      	beq 6d8 <_epiphany_start+0x58>
 6da:	2402      	moveq r1,r1
 6dc:	0b00      	beq 6f2 <RDS+0xa>
 6de:	3e0b 030b 	*unknown*
 6e2:	000e      	asr r0,r0,0x0
 6e4:	0300      	beq 6ea <RDS+0x2>
 6e6:	0024      	ldrh r0,[r0]
 6e8:	0b0b 0b3e 	*unknown*
 6ec:	0803      	mov r0,0x40
 6ee:	0000      	beq 6ee <RDS+0x6>
 6f0:	1604      	ldrb r0,[r5,0x4]
 6f2:	0300      	beq 6f8 <RDS+0x10>
 6f4:	3a0e      	asr r1,r6,0x10
 6f6:	3b0b 490b 	*unknown*
 6fa:	0013      	add r0,r0,0
 6fc:	0500      	beq 706 <RDS+0x1e>
 6fe:	0016      	lsl r0,r0,0x0
 700:	0e03      	mov r0,0x70
 702:	0b3a      	sub r0,r2,r6
 704:	053b 1349 	*unknown*
 708:	0000      	beq 708 <RDS+0x20>
 70a:	1706      	lsr r0,r5,0x18
 70c:	0b01      	ldrb r0,[r2,r6]
 70e:	3a0b 3b0b 	*unknown*
 712:	010b 0013 	*unknown*
 716:	0700      	beq 724 <_deregister_tm_clones+0x14>
 718:	000d 0e03 	*unknown*
 71c:	0b3a      	sub r0,r2,r6
 71e:	0b3b 1349 	*unknown*
 722:	0000      	beq 722 <_deregister_tm_clones+0x12>
 724:	0108 4901 	beq 920926 <__PROG_SIZE_FOR_CORE_+0x820926>
 728:	0113      	add r0,r0,2
 72a:	0013      	add r0,r0,0
 72c:	0900      	beq 73e <_register_tm_clones+0x2>
 72e:	0021      	ldrh r0,[r0,r0]
 730:	1349 0b2f 	*unknown*
 734:	0000      	beq 734 <_deregister_tm_clones+0x24>
 736:	130a      	eor r0,r4,r6
 738:	0b01      	ldrb r0,[r2,r6]
 73a:	3a0b 3b0b 	*unknown*
 73e:	010b 0013 	*unknown*
 742:	0b00      	beq 758 <_register_tm_clones+0x1c>
 744:	000d 0e03 	*unknown*
 748:	0b3a      	sub r0,r2,r6
 74a:	0b3b 1349 	*unknown*
 74e:	0b38 0000 	bgteu 764 <_register_tm_clones+0x28>
 752:	0f0c 0b00 	ldrb r0,[r19],-0x6
 756:	000b 0d00 	*unknown*
 75a:	0113      	add r0,r0,2
 75c:	0e03      	mov r0,0x70
 75e:	0b0b 0b3a 	*unknown*
 762:	0b3b 1301 	*unknown*
 766:	0000      	beq 766 <_register_tm_clones+0x2a>
 768:	0d0e      	asr r0,r3,0x8
 76a:	0300      	beq 770 <___do_global_dtors_aux+0x4>
 76c:	3a08 3b0b 	beq 761de0 <__PROG_SIZE_FOR_CORE_+0x661de0>
 770:	490b 3813 	*unknown*
 774:	000b 0f00 	*unknown*
 778:	000f 0b0b 	*unknown*
 77c:	1349 0000 	ldr r0,[r4,+r6]
 780:	1310      	bne 7a6 <___do_global_dtors_aux+0x3a>
 782:	0301      	ldrb r0,[r0,r6]
 784:	0b0e      	asr r0,r2,0x18
 786:	3a05      	ldrb r1,[r6],r4
 788:	3b0b 010b 	*unknown*
 78c:	0013      	add r0,r0,0
 78e:	1100      	beq 7b0 <___do_global_dtors_aux+0x44>
 790:	000d 0e03 	*unknown*
 794:	0b3a      	sub r0,r2,r6
 796:	0b3b 1349 	*unknown*
 79a:	0538 0000 	bgteu 7a4 <___do_global_dtors_aux+0x38>
 79e:	1512      	movfs r0,lc
 7a0:	2700      	beq 7ee <_frame_dummy+0xa>
 7a2:	0019 1300 	strb r0,[r32,+r48]
 7a6:	0115      	strb r0,[r0],r2
 7a8:	1927      	fmul r0,r6,r2
 7aa:	1349 1301 	*unknown*
 7ae:	0000      	beq 7ae <___do_global_dtors_aux+0x42>
 7b0:	0514      	strb r0,[r1,0x2]
 7b2:	4900      	beq 844 <_main+0x24>
 7b4:	0013      	add r0,r0,0
 7b6:	1500      	beq 7e0 <___do_global_dtors_aux+0x74>
 7b8:	0113      	add r0,r0,2
 7ba:	0e03      	mov r0,0x70
 7bc:	050b 0b3a 	*unknown*
 7c0:	053b 1301 	*unknown*
 7c4:	0000      	beq 7c4 <___do_global_dtors_aux+0x58>
 7c6:	0d16      	lsl r0,r3,0x8
 7c8:	0300      	beq 7ce <___do_global_dtors_aux+0x62>
 7ca:	3a0e      	asr r1,r6,0x10
 7cc:	3b0b 4905 	*unknown*
 7d0:	3813      	add r1,r6,0
 7d2:	000b 1700 	*unknown*
 7d6:	000d 0e03 	*unknown*
 7da:	0b3a      	sub r0,r2,r6
 7dc:	053b 1349 	*unknown*
 7e0:	0538 0000 	bgteu 7ea <_frame_dummy+0x6>
 7e4:	2618 4900 	bne 920830 <__PROG_SIZE_FOR_CORE_+0x820830>
 7e8:	0013      	add r0,r0,0
 7ea:	1900      	beq 81c <__HEAP_SIZE_FOR_CORE_+0x1c>
 7ec:	0113      	add r0,r0,2
 7ee:	0e03      	mov r0,0x70
 7f0:	0b0b 0b3a 	*unknown*
 7f4:	053b 1301 	*unknown*
 7f8:	0000      	beq 7f8 <_frame_dummy+0x14>
 7fa:	131a      	add r0,r4,r6
 7fc:	0b01      	ldrb r0,[r2,r6]
 7fe:	3a0b 3b0b 	*unknown*
 802:	0105      	ldrb r0,[r0],r2
 804:	0013      	add r0,r0,0
 806:	1b00      	beq 83c <_main+0x1c>
 808:	0117      	fsub r0,r0,r2
 80a:	0b0b 0b3a 	*unknown*
 80e:	053b 1301 	*unknown*
 812:	0000      	beq 812 <__HEAP_SIZE_FOR_CORE_+0x12>
 814:	0d1c 0300 	strb r0,[r3],-0x2
 818:	3a0e      	asr r1,r6,0x10
 81a:	3b0b 4905 	*unknown*
 81e:	0013      	add r0,r0,0
 820:	1d00      	beq 85a <_main+0x3a>
 822:	0115      	strb r0,[r0],r2
 824:	1927      	fmul r0,r6,r2
 826:	1301      	ldrb r0,[r4,r6]
 828:	0000      	beq 828 <_main+0x8>
 82a:	341e      	bitr r1,r5
 82c:	0300      	beq 832 <_main+0x12>
 82e:	3a0e      	asr r1,r6,0x10
 830:	3b0b 490b 	*unknown*
 834:	0213      	add r0,r0,-4
 836:	0018 1f00 	bne 3e0836 <__PROG_SIZE_FOR_CORE_+0x2e0836>
 83a:	0034      	strh r0,[r0]
 83c:	0e03      	mov r0,0x70
 83e:	0b3a      	sub r0,r2,r6
 840:	053b 1349 	*unknown*
 844:	193f 1802 	*unknown*
 848:	0000      	beq 848 <_main+0x28>
 84a:	0100      	beq 84c <_main+0x2c>
 84c:	0111      	strb r0,[r0,r2]
 84e:	0e25      	ldrh r0,[r3],r4
 850:	0b13      	add r0,r2,-2
 852:	0e03      	mov r0,0x70
 854:	0111      	strb r0,[r0,r2]
 856:	0612 1710 	*unknown*
 85a:	0000      	beq 85a <_main+0x3a>
 85c:	2402      	moveq r1,r1
 85e:	0b00      	beq 874 <_e_dma_copy+0x4>
 860:	3e0b 030b 	*unknown*
 864:	000e      	asr r0,r0,0x0
 866:	0300      	beq 86c <_main+0x4c>
 868:	0024      	ldrh r0,[r0]
 86a:	0b0b 0b3e 	*unknown*
 86e:	0803      	mov r0,0x40
 870:	0000      	beq 870 <_e_dma_copy>
 872:	1604      	ldrb r0,[r5,0x4]
 874:	0300      	beq 87a <_e_dma_copy+0xa>
 876:	3a0e      	asr r1,r6,0x10
 878:	3b0b 490b 	*unknown*
 87c:	0013      	add r0,r0,0
 87e:	0500      	beq 888 <_e_dma_copy+0x18>
 880:	0016      	lsl r0,r0,0x0
 882:	0e03      	mov r0,0x70
 884:	0b3a      	sub r0,r2,r6
 886:	053b 1349 	*unknown*
 88a:	0000      	beq 88a <_e_dma_copy+0x1a>
 88c:	1706      	lsr r0,r5,0x18
 88e:	0b01      	ldrb r0,[r2,r6]
 890:	3a0b 3b0b 	*unknown*
 894:	010b 0013 	*unknown*
 898:	0700      	beq 8a6 <_e_dma_copy+0x36>
 89a:	000d 0e03 	*unknown*
 89e:	0b3a      	sub r0,r2,r6
 8a0:	0b3b 1349 	*unknown*
 8a4:	0000      	beq 8a4 <_e_dma_copy+0x34>
 8a6:	0108 4901 	beq 920aa8 <__PROG_SIZE_FOR_CORE_+0x820aa8>
 8aa:	0113      	add r0,r0,2
 8ac:	0013      	add r0,r0,0
 8ae:	0900      	beq 8c0 <_e_dma_copy+0x50>
 8b0:	0021      	ldrh r0,[r0,r0]
 8b2:	1349 0b2f 	*unknown*
 8b6:	0000      	beq 8b6 <_e_dma_copy+0x46>
 8b8:	130a      	eor r0,r4,r6
 8ba:	0b01      	ldrb r0,[r2,r6]
 8bc:	3a0b 3b0b 	*unknown*
 8c0:	010b 0013 	*unknown*
 8c4:	0b00      	beq 8da <_e_dma_copy+0x6a>
 8c6:	000d 0e03 	*unknown*
 8ca:	0b3a      	sub r0,r2,r6
 8cc:	0b3b 1349 	*unknown*
 8d0:	0b38 0000 	bgteu 8e6 <_e_dma_copy+0x76>
 8d4:	0f0c 0b00 	ldrb r0,[r19],-0x6
 8d8:	000b 0d00 	*unknown*
 8dc:	0113      	add r0,r0,2
 8de:	0e03      	mov r0,0x70
 8e0:	0b0b 0b3a 	*unknown*
 8e4:	0b3b 1301 	*unknown*
 8e8:	0000      	beq 8e8 <_e_dma_copy+0x78>
 8ea:	0d0e      	asr r0,r3,0x8
 8ec:	0300      	beq 8f2 <_e_dma_copy+0x82>
 8ee:	3a08 3b0b 	beq 761f62 <__PROG_SIZE_FOR_CORE_+0x661f62>
 8f2:	490b 3813 	*unknown*
 8f6:	000b 0f00 	*unknown*
 8fa:	000f 0b0b 	*unknown*
 8fe:	1349 0000 	ldr r0,[r4,+r6]
 902:	1310      	bne 928 <_e_dma_copy+0xb8>
 904:	0301      	ldrb r0,[r0,r6]
 906:	0b0e      	asr r0,r2,0x18
 908:	3a05      	ldrb r1,[r6],r4
 90a:	3b0b 010b 	*unknown*
 90e:	0013      	add r0,r0,0
 910:	1100      	beq 932 <_e_dma_copy+0xc2>
 912:	000d 0e03 	*unknown*
 916:	0b3a      	sub r0,r2,r6
 918:	0b3b 1349 	*unknown*
 91c:	0538 0000 	bgteu 926 <_e_dma_copy+0xb6>
 920:	1512      	movfs r0,lc
 922:	2700      	beq 970 <_e_dma_copy+0x100>
 924:	0019 1300 	strb r0,[r32,+r48]
 928:	0115      	strb r0,[r0],r2
 92a:	1927      	fmul r0,r6,r2
 92c:	1349 1301 	*unknown*
 930:	0000      	beq 930 <_e_dma_copy+0xc0>
 932:	0514      	strb r0,[r1,0x2]
 934:	4900      	beq 9c6 <_e_dma_start+0x16>
 936:	0013      	add r0,r0,0
 938:	1500      	beq 962 <_e_dma_copy+0xf2>
 93a:	0113      	add r0,r0,2
 93c:	0e03      	mov r0,0x70
 93e:	050b 0b3a 	*unknown*
 942:	053b 1301 	*unknown*
 946:	0000      	beq 946 <_e_dma_copy+0xd6>
 948:	0d16      	lsl r0,r3,0x8
 94a:	0300      	beq 950 <_e_dma_copy+0xe0>
 94c:	3a0e      	asr r1,r6,0x10
 94e:	3b0b 4905 	*unknown*
 952:	3813      	add r1,r6,0
 954:	000b 1700 	*unknown*
 958:	000d 0e03 	*unknown*
 95c:	0b3a      	sub r0,r2,r6
 95e:	053b 1349 	*unknown*
 962:	0538 0000 	bgteu 96c <_e_dma_copy+0xfc>
 966:	2618 4900 	bne 9209b2 <__PROG_SIZE_FOR_CORE_+0x8209b2>
 96a:	0013      	add r0,r0,0
 96c:	1900      	beq 99e <_e_dma_copy+0x12e>
 96e:	0113      	add r0,r0,2
 970:	0e03      	mov r0,0x70
 972:	0b0b 0b3a 	*unknown*
 976:	053b 1301 	*unknown*
 97a:	0000      	beq 97a <_e_dma_copy+0x10a>
 97c:	131a      	add r0,r4,r6
 97e:	0b01      	ldrb r0,[r2,r6]
 980:	3a0b 3b0b 	*unknown*
 984:	0105      	ldrb r0,[r0],r2
 986:	0013      	add r0,r0,0
 988:	1b00      	beq 9be <_e_dma_start+0xe>
 98a:	0117      	fsub r0,r0,r2
 98c:	0b0b 0b3a 	*unknown*
 990:	053b 1301 	*unknown*
 994:	0000      	beq 994 <_e_dma_copy+0x124>
 996:	0d1c 0300 	strb r0,[r3],-0x2
 99a:	3a0e      	asr r1,r6,0x10
 99c:	3b0b 4905 	*unknown*
 9a0:	0013      	add r0,r0,0
 9a2:	1d00      	beq 9dc <_e_dma_start+0x2c>
 9a4:	0115      	strb r0,[r0],r2
 9a6:	1927      	fmul r0,r6,r2
 9a8:	1301      	ldrb r0,[r4,r6]
 9aa:	0000      	beq 9aa <_e_dma_copy+0x13a>
 9ac:	2e1e 3f01 	*unknown*
 9b0:	0319 3a0e 	*unknown*
 9b4:	3b0b 270b 	*unknown*
 9b8:	1119 1201 	*unknown*
 9bc:	4006      	lsr r2,r0,0x0
 9be:	9618 1942 	bne 328eea <__PROG_SIZE_FOR_CORE_+0x228eea>
 9c2:	1301      	ldrb r0,[r4,r6]
 9c4:	0000      	beq 9c4 <_e_dma_start+0x14>
 9c6:	051f 0300 	*unknown*
 9ca:	3a0e      	asr r1,r6,0x10
 9cc:	3b0b 490b 	*unknown*
 9d0:	0213      	add r0,r0,-4
 9d2:	0017      	fsub r0,r0,r0
 9d4:	2000      	beq a14 <_e_dma_start+0x64>
 9d6:	0005      	ldrb r0,[r0],r0
 9d8:	0803      	mov r0,0x40
 9da:	0b3a      	sub r0,r2,r6
 9dc:	0b3b 1349 	*unknown*
 9e0:	1702 0000 	*unknown*
 9e4:	3421      	ldrh r1,[r5,r0]
 9e6:	0300      	beq 9ec <_e_dma_start+0x3c>
 9e8:	3a08 3b0b 	beq 76205c <__PROG_SIZE_FOR_CORE_+0x66205c>
 9ec:	490b 0213 	*unknown*
 9f0:	0017      	fsub r0,r0,r0
 9f2:	2200      	beq a36 <_e_dma_start+0x86>
 9f4:	0034      	strh r0,[r0]
 9f6:	0e03      	mov r0,0x70
 9f8:	0b3a      	sub r0,r2,r6
 9fa:	0b3b 1349 	*unknown*
 9fe:	1702 0000 	*unknown*
 a02:	0a23      	mov r0,0x51
 a04:	0300      	beq a0a <_e_dma_start+0x5a>
 a06:	3a0e      	asr r1,r6,0x10
 a08:	3b0b 000b 	*unknown*
 a0c:	2400      	beq a54 <_e_dma_start+0xa4>
 a0e:	010b 1755 	*unknown*
 a12:	1301      	ldrb r0,[r4,r6]
 a14:	0000      	beq a14 <_e_dma_start+0x64>
 a16:	8925      	ldrh r4,[r2],r2
 a18:	0182      	wand
 a1a:	1101      	ldrb r0,[r4,r2]
 a1c:	0001      	ldrb r0,[r0,r0]
 a1e:	2600      	beq a6a <_e_reg_write+0x2>
 a20:	828a      	eor r4,r0,r5
 a22:	0001      	ldrb r0,[r0,r0]
 a24:	1802      	moveq r0,r6
 a26:	4291      	strb r2,[r0,r5]
 a28:	0018 2700 	bne 4e0a28 <__PROG_SIZE_FOR_CORE_+0x3e0a28>
 a2c:	0034      	strh r0,[r0]
 a2e:	0e03      	mov r0,0x70
 a30:	0b3a      	sub r0,r2,r6
 a32:	053b 1349 	*unknown*
 a36:	193f 193c 	*unknown*
 a3a:	0000 	beq a3a <_e_dma_start+0x8a>
	...

Disassembly of section .debug_line:

00000000 <.debug_line>:
   0:	0158 0000 	bltu 2 <__CORE_NUM_+0x2>
   4:	0004      	ldrb r0,[r0]
   6:	00a6      	lsr r0,r0,0x5
   8:	0000      	beq 8 <__CORE_COL_>
   a:	0101      	ldrb r0,[r0,r2]
   c:	f601      	ldrb r7,[r5,r4]
   e:	0df2 0100 	*unknown*
  12:	0101      	ldrb r0,[r0,r2]
  14:	0001      	ldrb r0,[r0,r0]
  16:	0000      	beq 16 <__CORE_COL_+0xe>
  18:	0001      	ldrb r0,[r0,r0]
  1a:	0100      	beq 1c <__CORE_COL_+0x14>
  1c:	682f 6d6f 	*unknown*
  20:	2f65      	ldrd r1,[r3],r6
  22:	7365      	ldrd r3,[r4],r6
  24:	6d69 652f 	*unknown*
  28:	6473 2d6b 	*unknown*
  2c:	7573 6d62 	*unknown*
  30:	646f 6c75 	*unknown*
  34:	2f65      	ldrd r1,[r3],r6
  36:	7562 6c69 	*unknown*
  3a:	7364      	ldrd r3,[r4,0x6]
  3c:	692f 2d64 	*unknown*
  40:	3878 5f36 	bgte be6cb0 <__PROG_SIZE_FOR_CORE_+0xae6cb0>
  44:	3436      	lsl r1,r5,0x1
  46:	322d 3130 	*unknown*
  4a:	2e35      	strh r1,[r3],r4
  4c:	2d31      	strh r1,[r3,r2]
  4e:	6f74      	strd r3,[r3,0x6]
  50:	6c6f 6863 	*unknown*
  54:	6961      	ldrd r3,[r2,r2]
  56:	2f6e      	asr r1,r3,0x1b
  58:	696c 2f62 	ldrd fp,[r26],-0x312
  5c:	6367      	fix r3,r0
  5e:	2f63      	mov r1,0x7b
  60:	7065      	ldrd r3,[r4],r0
  62:	7069 6168 	*unknown*
  66:	796e      	asr r3,r6,0xb
  68:	652d 666c 	*unknown*
  6c:	342f 382e 	*unknown*
  70:	322e      	asr r1,r4,0x11
  72:	692f 636e 	*unknown*
  76:	756c 6564 	ldrd r27,[sp,-0x322]
  7a:	6900      	beq 14c <___call_exitprocs+0x8c>
  7c:	636e      	asr r3,r0,0x1b
  7e:	756c 6564 	ldrd r27,[sp,-0x322]
  82:	7300      	beq 168 <___call_exitprocs+0xa8>
  84:	6372 0000 	*unknown*
  88:	5f65      	ldrd r2,[r7],r6
  8a:	6d64      	ldrd r3,[r3,0x2]
  8c:	5f61      	ldrd r2,[r7,r6]
  8e:	6f63      	mov r3,0x7b
  90:	7970      	bgte 182 <___call_exitprocs+0xc2>
  92:	632e      	asr r3,r0,0x19
  94:	0300      	beq 9a <_exit+0x1a>
  96:	0000      	beq 96 <_exit+0x16>
  98:	5f65      	ldrd r2,[r7],r6
  9a:	6d64      	ldrd r3,[r3,0x2]
  9c:	2e61      	ldrd r1,[r3,r4]
  9e:	0068 0002 	bgt 49e <_impure_data+0x29e>
  a2:	7300      	beq 188 <___call_exitprocs+0xc8>
  a4:	6474      	strd r3,[r1]
  a6:	6564      	ldrd r3,[r1,0x2]
  a8:	2e66      	lsr r1,r3,0x13
  aa:	0068 0001 	bgt 2aa <_impure_data+0xaa>
  ae:	0000      	beq ae <_exit+0x2e>
  b0:	0500      	beq ba <_exit+0x3a>
  b2:	7002      	moveq r3,r4
  b4:	0008 4600 	beq 8c00b4 <__PROG_SIZE_FOR_CORE_+0x7c00b4>
  b8:	0500      	beq c2 <___call_exitprocs+0x2>
  ba:	8802      	moveq r4,r2
  bc:	0008 1f00 	beq 3e00bc <__PROG_SIZE_FOR_CORE_+0x2e00bc>
  c0:	0500      	beq ca <___call_exitprocs+0xa>
  c2:	8e02 0008 	*unknown*
  c6:	1900      	beq f8 <___call_exitprocs+0x38>
  c8:	0500      	beq d2 <___call_exitprocs+0x12>
  ca:	a602 0008 	*unknown*
  ce:	1900      	beq 100 <___call_exitprocs+0x40>
  d0:	0500      	beq da <___call_exitprocs+0x1a>
  d2:	c002      	moveq r6,r0
  d4:	0008 1800 	beq 3000d4 <__PROG_SIZE_FOR_CORE_+0x2000d4>
  d8:	0500      	beq e2 <___call_exitprocs+0x22>
  da:	d202 0008 	*unknown*
  de:	1800      	beq 10e <___call_exitprocs+0x4e>
  e0:	0500      	beq ea <___call_exitprocs+0x2a>
  e2:	e002      	moveq r7,r0
  e4:	0008 1800 	beq 3000e4 <__PROG_SIZE_FOR_CORE_+0x2000e4>
  e8:	0500      	beq f2 <___call_exitprocs+0x32>
  ea:	f802      	moveq r7,r6
  ec:	0008 1800 	beq 3000ec <__PROG_SIZE_FOR_CORE_+0x2000ec>
  f0:	0500      	beq fa <___call_exitprocs+0x3a>
  f2:	0a02 0009 	*unknown*
  f6:	1a00      	beq 12a <___call_exitprocs+0x6a>
  f8:	0500      	beq 102 <___call_exitprocs+0x42>
  fa:	1802      	moveq r0,r6
  fc:	0009 1800 	ldrb r0,[r48,+r0]
 100:	0500      	beq 10a <___call_exitprocs+0x4a>
 102:	2602 0009 	*unknown*
 106:	1800      	beq 136 <___call_exitprocs+0x76>
 108:	0500      	beq 112 <___call_exitprocs+0x52>
 10a:	4402      	moveq r2,r1
 10c:	0009 1800 	ldrb r0,[r48,+r0]
 110:	0500      	beq 11a <___call_exitprocs+0x5a>
 112:	5202 0009 	*unknown*
 116:	1800      	beq 146 <___call_exitprocs+0x86>
 118:	0500      	beq 122 <___call_exitprocs+0x62>
 11a:	6002      	moveq r3,r0
 11c:	0009 1800 	ldrb r0,[r48,+r0]
 120:	0500      	beq 12a <___call_exitprocs+0x6a>
 122:	6e02 0009 	*unknown*
 126:	1900      	beq 158 <___call_exitprocs+0x98>
 128:	0500      	beq 132 <___call_exitprocs+0x72>
 12a:	8802      	moveq r4,r2
 12c:	0009 1900 	ldrb r0,[r48,+r16]
 130:	0500      	beq 13a <___call_exitprocs+0x7a>
 132:	8a02 0009 	*unknown*
 136:	0000      	beq 136 <___call_exitprocs+0x76>
 138:	0402      	moveq r0,r1
 13a:	0601      	ldrb r0,[r1,r4]
 13c:	0001      	ldrb r0,[r0,r0]
 13e:	0205      	ldrb r0,[r0],r4
 140:	099c 0000 	strb r0,[r2,+0x3]
 144:	0200      	beq 148 <___call_exitprocs+0x88>
 146:	0004      	ldrb r0,[r0]
 148:	1906      	lsr r0,r6,0x8
 14a:	0500      	beq 154 <___call_exitprocs+0x94>
 14c:	a002      	moveq r5,r0
 14e:	0009 1800 	ldrb r0,[r48,+r0]
 152:	0500      	beq 15c <___call_exitprocs+0x9c>
 154:	b002      	moveq r5,r4
 156:	0009 0000 	ldrb r0,[r0,+r0]
 15a:	0101      	ldrb r0,[r0,r2]
 15c:	00ef 0000 	*unknown*
 160:	0004      	ldrb r0,[r0]
 162:	0055      	str r0,[r0],r0
 164:	0000      	beq 164 <___call_exitprocs+0xa4>
 166:	0101      	ldrb r0,[r0,r2]
 168:	f601      	ldrb r7,[r5,r4]
 16a:	0df2 0100 	*unknown*
 16e:	0101      	ldrb r0,[r0,r2]
 170:	0001      	ldrb r0,[r0,r0]
 172:	0000      	beq 172 <___call_exitprocs+0xb2>
 174:	0001      	ldrb r0,[r0,r0]
 176:	0100      	beq 178 <___call_exitprocs+0xb8>
 178:	6e69 6c63 	*unknown*
 17c:	6475      	strd r3,[r1],r0
 17e:	0065      	ldrd r0,[r0],r0
 180:	7273 0063 	*unknown*
 184:	6500      	beq 24e <_impure_data+0x4e>
 186:	645f 616d 	*unknown*
 18a:	735f 6174 	*unknown*
 18e:	7472      	movgte r3,r5
 190:	632e      	asr r3,r0,0x19
 192:	0200      	beq 196 <___call_exitprocs+0xd6>
 194:	0000      	beq 194 <___call_exitprocs+0xd4>
 196:	5f65      	ldrd r2,[r7],r6
 198:	7974      	strd r3,[r6,0x2]
 19a:	6570      	bgte 264 <_impure_data+0x64>
 19c:	2e73 0068 	*unknown*
 1a0:	0001      	ldrb r0,[r0,r0]
 1a2:	6500      	beq 26c <_impure_data+0x6c>
 1a4:	725f 6765 	*unknown*
 1a8:	2e73 0068 	*unknown*
 1ac:	0001      	ldrb r0,[r0,r0]
 1ae:	6500      	beq 278 <_impure_data+0x78>
 1b0:	645f 616d 	*unknown*
 1b4:	682e      	asr r3,r2,0x1
 1b6:	0100      	beq 1b8 <___call_exitprocs+0xf8>
 1b8:	0000      	beq 1b8 <___call_exitprocs+0xf8>
 1ba:	0000      	beq 1ba <___call_exitprocs+0xfa>
 1bc:	0205      	ldrb r0,[r0],r4
 1be:	09b0      	bbne 1d0 <___call_exitprocs+0x110>
 1c0:	0000      	beq 1c0 <___call_exitprocs+0x100>
 1c2:	0035      	strh r0,[r0],r0
 1c4:	0205      	ldrb r0,[r0],r4
 1c6:	09c4      	ldr r0,[r2,0x3]
 1c8:	0000      	beq 1c8 <___call_exitprocs+0x108>
 1ca:	001b 0205 	*unknown*
 1ce:	09d0      	bblte 1e0 <___call_exitprocs+0x120>
 1d0:	0000      	beq 1d0 <___call_exitprocs+0x110>
 1d2:	0019 0205 	*unknown*
 1d6:	09dc 0000 	str r0,[r2,+0x3]
 1da:	0019 0205 	*unknown*
 1de:	09e6      	lsr r0,r2,0xf
 1e0:	0000      	beq 1e0 <___call_exitprocs+0x120>
 1e2:	001b 0205 	*unknown*
 1e6:	09e8 0000 	b 1f8 <__impure_ptr>
 1ea:	0200      	beq 1ee <___call_exitprocs+0x12e>
 1ec:	0104      	ldrb r0,[r0,0x2]
 1ee:	0106      	lsr r0,r0,0x8
 1f0:	0500      	beq 1fa <__impure_ptr+0x2>
 1f2:	fa02 0009 	*unknown*
 1f6:	0000      	beq 1f6 <___call_exitprocs+0x136>
 1f8:	0402      	moveq r0,r1
 1fa:	0600      	beq 206 <_impure_data+0x6>
 1fc:	0019 0205 	*unknown*
 200:	0a08 0000 	beq 214 <_impure_data+0x14>
 204:	0019 0205 	*unknown*
 208:	0a16      	lsl r0,r2,0x10
 20a:	0000      	beq 20a <_impure_data+0xa>
 20c:	001a      	add r0,r0,r0
 20e:	0205      	ldrb r0,[r0],r4
 210:	0a2c 0000 	ldrh r0,[r2,+0x4]
 214:	0018 0205 	bne 40c14 <__stack_start_+0x38c24>
 218:	0a32 0000 	*unknown*
 21c:	0018 0205 	bne 40c1c <__stack_start_+0x38c2c>
 220:	0a34      	strh r0,[r2,0x4]
 222:	0000      	beq 222 <_impure_data+0x22>
 224:	0019 0205 	*unknown*
 228:	0a4a      	lsr r0,r2,r4
 22a:	0000      	beq 22a <_impure_data+0x2a>
 22c:	0018 0205 	bne 40c2c <__stack_start_+0x38c3c>
 230:	0a50      	bltu 244 <_impure_data+0x44>
 232:	0000      	beq 232 <_impure_data+0x32>
 234:	0018 0205 	bne 40c34 <__stack_start_+0x38c44>
 238:	0a52 0000 	*unknown*
 23c:	001a      	add r0,r0,r0
 23e:	0205      	ldrb r0,[r0],r4
 240:	0a56      	lsl r0,r2,0x12
 242:	0000      	beq 242 <_impure_data+0x42>
 244:	0018 0205 	bne 40c44 <__stack_start_+0x38c54>
 248:	0a66      	lsr r0,r2,0x13
 24a:	0000      	beq 24a <_impure_data+0x4a>
 24c:	0100      	beq 24e <_impure_data+0x4e>
 24e:	bb01      	ldrb r5,[r6,r6]
 250:	0000      	beq 250 <_impure_data+0x50>
 252:	0400      	beq 25a <_impure_data+0x5a>
 254:	4b00      	beq 2ea <_impure_data+0xea>
 256:	0000      	beq 256 <_impure_data+0x56>
 258:	0100      	beq 25a <_impure_data+0x5a>
 25a:	0101      	ldrb r0,[r0,r2]
 25c:	f2f6      	lsl r7,r4,0x17
 25e:	000d 0101 	*unknown*
 262:	0101      	ldrb r0,[r0,r2]
 264:	0000      	beq 264 <_impure_data+0x64>
 266:	0100      	beq 268 <_impure_data+0x68>
 268:	0000      	beq 268 <_impure_data+0x68>
 26a:	6901      	ldrb r3,[r2,r2]
 26c:	636e      	asr r3,r0,0x1b
 26e:	756c 6564 	ldrd r27,[sp,-0x322]
 272:	7300      	beq 358 <_impure_data+0x158>
 274:	6372 0000 	*unknown*
 278:	5f65      	ldrd r2,[r7],r6
 27a:	6572 5f67 	*unknown*
 27e:	7277      	fabs rd,rn
 280:	7469 2e65 	*unknown*
 284:	0063      	mov r0,0x3
 286:	0002      	moveq r0,r0
 288:	6500      	beq 352 <_impure_data+0x152>
 28a:	725f 6765 	*unknown*
 28e:	2e73 0068 	*unknown*
 292:	0001      	ldrb r0,[r0,r0]
 294:	6500      	beq 35e <_impure_data+0x15e>
 296:	635f 726f 	*unknown*
 29a:	6965      	ldrd r3,[r2],r2
 29c:	2e64      	ldrd r1,[r3,0x4]
 29e:	0068 0001 	bgt 49e <_impure_data+0x29e>
 2a2:	0000      	beq 2a2 <_impure_data+0xa2>
 2a4:	0500      	beq 2ae <_impure_data+0xae>
 2a6:	6802      	moveq r3,r2
 2a8:	000a      	eor r0,r0,r0
 2aa:	3400      	beq 312 <_impure_data+0x112>
 2ac:	0500      	beq 2b6 <_impure_data+0xb6>
 2ae:	7c02      	moveq r3,r7
 2b0:	000a      	eor r0,r0,r0
 2b2:	1800      	beq 2e2 <_impure_data+0xe2>
 2b4:	0500      	beq 2be <_impure_data+0xbe>
 2b6:	8402      	moveq r4,r1
 2b8:	000a      	eor r0,r0,r0
 2ba:	1b00      	beq 2f0 <_impure_data+0xf0>
 2bc:	0500      	beq 2c6 <_impure_data+0xc6>
 2be:	a202 000a 	*unknown*
 2c2:	1a00      	beq 2f6 <_impure_data+0xf6>
 2c4:	0500      	beq 2ce <_impure_data+0xce>
 2c6:	a802      	moveq r5,r2
 2c8:	000a      	eor r0,r0,r0
 2ca:	1800      	beq 2fa <_impure_data+0xfa>
 2cc:	0500      	beq 2d6 <_impure_data+0xd6>
 2ce:	aa02 000a 	*unknown*
 2d2:	1900      	beq 304 <_impure_data+0x104>
 2d4:	0500      	beq 2de <_impure_data+0xde>
 2d6:	b002      	moveq r5,r4
 2d8:	000a      	eor r0,r0,r0
 2da:	1800      	beq 30a <_impure_data+0x10a>
 2dc:	0500      	beq 2e6 <_impure_data+0xe6>
 2de:	b202 000a 	*unknown*
 2e2:	1900      	beq 314 <_impure_data+0x114>
 2e4:	0500      	beq 2ee <_impure_data+0xee>
 2e6:	d802      	moveq r6,r6
 2e8:	000a      	eor r0,r0,r0
 2ea:	1800      	beq 31a <_impure_data+0x11a>
 2ec:	0500      	beq 2f6 <_impure_data+0xf6>
 2ee:	e202 000a 	*unknown*
 2f2:	1800      	beq 322 <_impure_data+0x122>
 2f4:	0500      	beq 2fe <_impure_data+0xfe>
 2f6:	e402      	moveq r7,r1
 2f8:	000a      	eor r0,r0,r0
 2fa:	1a00      	beq 32e <_impure_data+0x12e>
 2fc:	0500      	beq 306 <_impure_data+0x106>
 2fe:	e602 000a 	*unknown*
 302:	1800      	beq 332 <_impure_data+0x132>
 304:	0500      	beq 30e <_impure_data+0x10e>
 306:	f602 000a 	*unknown*
 30a:	0000      	beq 30a <_impure_data+0x10a>
 30c:	0101      	ldrb r0,[r0,r2]
 30e:	0053 0000 	*unknown*
 312:	0004      	ldrb r0,[r0]
 314:	0043      	mov r0,0x2
 316:	0000      	beq 316 <_impure_data+0x116>
 318:	0101      	ldrb r0,[r0,r2]
 31a:	f601      	ldrb r7,[r5,r4]
 31c:	0df2 0100 	*unknown*
 320:	0101      	ldrb r0,[r0,r2]
 322:	0001      	ldrb r0,[r0,r0]
 324:	0000      	beq 324 <_impure_data+0x124>
 326:	0001      	ldrb r0,[r0,r0]
 328:	0100      	beq 32a <_impure_data+0x12a>
 32a:	6e69 6c63 	*unknown*
 32e:	6475      	strd r3,[r1],r0
 330:	0065      	ldrd r0,[r0],r0
 332:	7273 0063 	*unknown*
 336:	6500      	beq 400 <_impure_data+0x200>
 338:	635f 726f 	*unknown*
 33c:	6965      	ldrd r3,[r2],r2
 33e:	2e64      	ldrd r1,[r3,0x4]
 340:	0068 0001 	bgt 540 <_impure_data+0x340>
 344:	6500      	beq 40e <_impure_data+0x20e>
 346:	635f 726f 	*unknown*
 34a:	6965      	ldrd r3,[r2],r2
 34c:	5f64      	ldrd r2,[r7,0x6]
 34e:	6f63      	mov r3,0x7b
 350:	666e      	asr r3,r1,0x13
 352:	6769 632e 	*unknown*
 356:	0200      	beq 35a <_impure_data+0x15a>
 358:	0000      	beq 358 <_impure_data+0x158>
 35a:	0000      	beq 35a <_impure_data+0x15a>
 35c:	0205      	ldrb r0,[r0],r4
 35e:	0af8 0000 	bl 372 <_impure_data+0x172>
 362:	0100      	beq 364 <_impure_data+0x164>
 364:	c901      	ldrb r6,[r2,r2]
 366:	0000      	beq 366 <_impure_data+0x166>
 368:	0400      	beq 370 <_impure_data+0x170>
 36a:	4f00      	beq 408 <_impure_data+0x208>
 36c:	0000      	beq 36c <_impure_data+0x16c>
 36e:	0100      	beq 370 <_impure_data+0x170>
 370:	0101      	ldrb r0,[r0,r2]
 372:	f2f6      	lsl r7,r4,0x17
 374:	000d 0101 	*unknown*
 378:	0101      	ldrb r0,[r0,r2]
 37a:	0000      	beq 37a <_impure_data+0x17a>
 37c:	0100      	beq 37e <_impure_data+0x17e>
 37e:	0000      	beq 37e <_impure_data+0x17e>
 380:	6901      	ldrb r3,[r2,r2]
 382:	636e      	asr r3,r0,0x1b
 384:	756c 6564 	ldrd r27,[sp,-0x322]
 388:	7300      	beq 46e <_impure_data+0x26e>
 38a:	6372 0000 	*unknown*
 38e:	5f65      	ldrd r2,[r7],r6
 390:	6f63      	mov r3,0x7b
 392:	6572 6469 	*unknown*
 396:	675f 7465 	*unknown*
 39a:	675f 6f6c 	*unknown*
 39e:	6162 5f6c 	*unknown*
 3a2:	6461      	ldrd r3,[r1,r0]
 3a4:	7264      	ldrd r3,[r4,0x4]
 3a6:	7365      	ldrd r3,[r4],r6
 3a8:	2e73 0063 	*unknown*
 3ac:	0002      	moveq r0,r0
 3ae:	6500      	beq 478 <_impure_data+0x278>
 3b0:	635f 726f 	*unknown*
 3b4:	6965      	ldrd r3,[r2],r2
 3b6:	2e64      	ldrd r1,[r3,0x4]
 3b8:	0068 0001 	bgt 5b8 <_impure_data+0x3b8>
 3bc:	0000      	beq 3bc <_impure_data+0x1bc>
 3be:	0500      	beq 3c8 <_impure_data+0x1c8>
 3c0:	f802      	moveq r7,r6
 3c2:	000a      	eor r0,r0,r0
 3c4:	3500      	beq 42e <_impure_data+0x22e>
 3c6:	0500      	beq 3d0 <_impure_data+0x1d0>
 3c8:	1002      	moveq r0,r4
 3ca:	000b 1c00 	*unknown*
 3ce:	0500      	beq 3d8 <_impure_data+0x1d8>
 3d0:	2202 000b 	*unknown*
 3d4:	1900      	beq 406 <_impure_data+0x206>
 3d6:	0500      	beq 3e0 <_impure_data+0x1e0>
 3d8:	2a02 000b 	*unknown*
 3dc:	1800      	beq 40c <_impure_data+0x20c>
 3de:	0500      	beq 3e8 <_impure_data+0x1e8>
 3e0:	3002      	moveq r1,r4
 3e2:	000b 1900 	*unknown*
 3e6:	0500      	beq 3f0 <_impure_data+0x1f0>
 3e8:	3802      	moveq r1,r6
 3ea:	000b 0000 	*unknown*
 3ee:	0402      	moveq r0,r1
 3f0:	0601      	ldrb r0,[r1,r4]
 3f2:	0001      	ldrb r0,[r0,r0]
 3f4:	0205      	ldrb r0,[r0],r4
 3f6:	0b40      	blteu 40c <_impure_data+0x20c>
 3f8:	0000      	beq 3f8 <_impure_data+0x1f8>
 3fa:	0200      	beq 3fe <_impure_data+0x1fe>
 3fc:	0004      	ldrb r0,[r0]
 3fe:	1806      	lsr r0,r6,0x0
 400:	0500      	beq 40a <_impure_data+0x20a>
 402:	5002      	moveq r2,r4
 404:	000b 1900 	*unknown*
 408:	0500      	beq 412 <_impure_data+0x212>
 40a:	6c02      	moveq r3,r3
 40c:	000b 1b00 	*unknown*
 410:	0500      	beq 41a <_impure_data+0x21a>
 412:	7402      	moveq r3,r5
 414:	000b 1800 	*unknown*
 418:	0500      	beq 422 <_impure_data+0x222>
 41a:	8402      	moveq r4,r1
 41c:	000b 1900 	*unknown*
 420:	0500      	beq 42a <_impure_data+0x22a>
 422:	8802      	moveq r4,r2
 424:	000b 1800 	*unknown*
 428:	0500      	beq 432 <_impure_data+0x232>
 42a:	9802      	moveq r4,r6
 42c:	000b 0000 	*unknown*
 430:	0101      	ldrb r0,[r0,r2]
 432:	0087      	fadd r0,r0,r1
 434:	0000      	beq 434 <_impure_data+0x234>
 436:	0004      	ldrb r0,[r0]
 438:	0047      	fmsub r0,r0,r0
 43a:	0000      	beq 43a <_impure_data+0x23a>
 43c:	0101      	ldrb r0,[r0,r2]
 43e:	f601      	ldrb r7,[r5,r4]
 440:	0df2 0100 	*unknown*
 444:	0101      	ldrb r0,[r0,r2]
 446:	0001      	ldrb r0,[r0,r0]
 448:	0000      	beq 448 <_impure_data+0x248>
 44a:	0001      	ldrb r0,[r0,r0]
 44c:	0100      	beq 44e <_impure_data+0x24e>
 44e:	6e69 6c63 	*unknown*
 452:	6475      	strd r3,[r1],r0
 454:	0065      	ldrd r0,[r0],r0
 456:	7273 0063 	*unknown*
 45a:	6500      	beq 524 <_impure_data+0x324>
 45c:	645f 616d 	*unknown*
 460:	625f 7375 	*unknown*
 464:	2e79 0063 	*unknown*
 468:	0002      	moveq r0,r0
 46a:	6500      	beq 534 <_impure_data+0x334>
 46c:	725f 6765 	*unknown*
 470:	2e73 0068 	*unknown*
 474:	0001      	ldrb r0,[r0,r0]
 476:	6500      	beq 540 <_impure_data+0x340>
 478:	645f 616d 	*unknown*
 47c:	682e      	asr r3,r2,0x1
 47e:	0100      	beq 480 <_impure_data+0x280>
 480:	0000      	beq 480 <_impure_data+0x280>
 482:	0000      	beq 482 <_impure_data+0x282>
 484:	0205      	ldrb r0,[r0],r4
 486:	0b98 0000 	blte 49c <_impure_data+0x29c>
 48a:	0034      	strh r0,[r0]
 48c:	0205      	ldrb r0,[r0],r4
 48e:	0ba8 0000 	bbeq 4a4 <_impure_data+0x2a4>
 492:	0018 0205 	bne 40e92 <__stack_start_+0x38ea2>
 496:	0bb6      	lsl r0,r2,0x1d
 498:	0000      	beq 498 <_impure_data+0x298>
 49a:	001a      	add r0,r0,r0
 49c:	0205      	ldrb r0,[r0],r4
 49e:	0bd0      	bblte 4b4 <_impure_data+0x2b4>
 4a0:	0000      	beq 4a0 <_impure_data+0x2a0>
 4a2:	0019 0205 	*unknown*
 4a6:	0bea      	asr r0,r2,r7
 4a8:	0000      	beq 4a8 <_impure_data+0x2a8>
 4aa:	0019 0205 	*unknown*
 4ae:	0bf2 0000 	*unknown*
 4b2:	0019 0205 	*unknown*
 4b6:	0c02      	moveq r0,r3
 4b8:	0000      	beq 4b8 <_impure_data+0x2b8>
 4ba:	0100      	beq 4bc <_impure_data+0x2bc>
 4bc:	a201      	ldrb r5,[r0,r4]
 4be:	0000      	beq 4be <_impure_data+0x2be>
 4c0:	0400      	beq 4c8 <_impure_data+0x2c8>
 4c2:	4a00      	beq 556 <_impure_data+0x356>
 4c4:	0000      	beq 4c4 <_impure_data+0x2c4>
 4c6:	0100      	beq 4c8 <_impure_data+0x2c8>
 4c8:	0101      	ldrb r0,[r0,r2]
 4ca:	f2f6      	lsl r7,r4,0x17
 4cc:	000d 0101 	*unknown*
 4d0:	0101      	ldrb r0,[r0,r2]
 4d2:	0000      	beq 4d2 <_impure_data+0x2d2>
 4d4:	0100      	beq 4d6 <_impure_data+0x2d6>
 4d6:	0000      	beq 4d6 <_impure_data+0x2d6>
 4d8:	6901      	ldrb r3,[r2,r2]
 4da:	636e      	asr r3,r0,0x1b
 4dc:	756c 6564 	ldrd r27,[sp,-0x322]
 4e0:	7300      	beq 5c6 <_impure_data+0x3c6>
 4e2:	6372 0000 	*unknown*
 4e6:	5f65      	ldrd r2,[r7],r6
 4e8:	6572 5f67 	*unknown*
 4ec:	6572 6461 	*unknown*
 4f0:	632e      	asr r3,r0,0x19
 4f2:	0200      	beq 4f6 <_impure_data+0x2f6>
 4f4:	0000      	beq 4f4 <_impure_data+0x2f4>
 4f6:	5f65      	ldrd r2,[r7],r6
 4f8:	6572 7367 	*unknown*
 4fc:	682e      	asr r3,r2,0x1
 4fe:	0100      	beq 500 <_impure_data+0x300>
 500:	0000      	beq 500 <_impure_data+0x300>
 502:	5f65      	ldrd r2,[r7],r6
 504:	6f63      	mov r3,0x7b
 506:	6572 6469 	*unknown*
 50a:	682e      	asr r3,r2,0x1
 50c:	0100      	beq 50e <_impure_data+0x30e>
 50e:	0000      	beq 50e <_impure_data+0x30e>
 510:	0000      	beq 510 <_impure_data+0x310>
 512:	0205      	ldrb r0,[r0],r4
 514:	0c04      	ldrb r0,[r3]
 516:	0000      	beq 516 <_impure_data+0x316>
 518:	0034      	strh r0,[r0]
 51a:	0205      	ldrb r0,[r0],r4
 51c:	0c14      	strb r0,[r3]
 51e:	0000      	beq 51e <_impure_data+0x31e>
 520:	001c 0205 	strb r0,[r0],+0x28
 524:	0c32      	movgteu r0,r3
 526:	0000      	beq 526 <_impure_data+0x326>
 528:	001a      	add r0,r0,r0
 52a:	0205      	ldrb r0,[r0],r4
 52c:	0c38 0000 	bgteu 544 <_impure_data+0x344>
 530:	0018 0205 	bne 40f30 <__stack_start_+0x38f40>
 534:	0c3e 0000 	*unknown*
 538:	0019 0205 	*unknown*
 53c:	0c44      	ldr r0,[r3]
 53e:	0000      	beq 53e <_impure_data+0x33e>
 540:	0018 0205 	bne 40f40 <__stack_start_+0x38f50>
 544:	0c4a      	lsr r0,r3,r0
 546:	0000      	beq 546 <_impure_data+0x346>
 548:	0019 0205 	*unknown*
 54c:	0c70      	bgte 564 <_impure_data+0x364>
 54e:	0000      	beq 54e <_impure_data+0x34e>
 550:	0018 0205 	bne 40f50 <__stack_start_+0x38f60>
 554:	0c76      	lsl r0,r3,0x3
 556:	0000      	beq 556 <_impure_data+0x356>
 558:	0019 0205 	*unknown*
 55c:	0c86      	lsr r0,r3,0x4
 55e:	0000      	beq 55e <_impure_data+0x35e>
 560:	0100      	beq 562 <_impure_data+0x362>
 562:	6f01      	ldrb r3,[r3,r6]
 564:	0000      	beq 564 <_impure_data+0x364>
 566:	0400      	beq 56e <_impure_data+0x36e>
 568:	4700      	beq 5f6 <_impure_data+0x3f6>
 56a:	0000      	beq 56a <_impure_data+0x36a>
 56c:	0100      	beq 56e <_impure_data+0x36e>
 56e:	0101      	ldrb r0,[r0,r2]
 570:	f2f6      	lsl r7,r4,0x17
 572:	000d 0101 	*unknown*
 576:	0101      	ldrb r0,[r0,r2]
 578:	0000      	beq 578 <_impure_data+0x378>
 57a:	0100      	beq 57c <_impure_data+0x37c>
 57c:	0000      	beq 57c <_impure_data+0x37c>
 57e:	6901      	ldrb r3,[r2,r2]
 580:	636e      	asr r3,r0,0x1b
 582:	756c 6564 	ldrd r27,[sp,-0x322]
 586:	7300      	beq 66c <init+0x1e>
 588:	6372 0000 	*unknown*
 58c:	5f65      	ldrd r2,[r7],r6
 58e:	6f63      	mov r3,0x7b
 590:	6572 6469 	*unknown*
 594:	675f 7465 	*unknown*
 598:	635f 726f 	*unknown*
 59c:	6965      	ldrd r3,[r2],r2
 59e:	2e64      	ldrd r1,[r3,0x4]
 5a0:	0063      	mov r0,0x3
 5a2:	0002      	moveq r0,r0
 5a4:	6500      	beq 66e <init+0x20>
 5a6:	635f 726f 	*unknown*
 5aa:	6965      	ldrd r3,[r2],r2
 5ac:	2e64      	ldrd r1,[r3,0x4]
 5ae:	0068 0001 	bgt 7ae <___do_global_dtors_aux+0x42>
 5b2:	0000      	beq 5b2 <_impure_data+0x3b2>
 5b4:	0500      	beq 5be <_impure_data+0x3be>
 5b6:	8802      	moveq r4,r2
 5b8:	000c 3400 	ldrb r8,[r40,+0x0]
 5bc:	0500      	beq 5c6 <_impure_data+0x3c6>
 5be:	9002      	moveq r4,r4
 5c0:	000c 1900 	ldrb r0,[r48,-0x0]
 5c4:	0500      	beq 5ce <_impure_data+0x3ce>
 5c6:	9402      	moveq r4,r5
 5c8:	000c 1a00 	ldrb r0,[r48],+0x0
 5cc:	0500      	beq 5d6 <_impure_data+0x3d6>
 5ce:	a002      	moveq r5,r0
 5d0:	000c 0000 	ldrb r0,[r0,+0x0]
 5d4:	0101      	ldrb r0,[r0,r2]
 5d6:	019a      	add r0,r0,r3
 5d8:	0000      	beq 5d8 <_impure_data+0x3d8>
 5da:	0004      	ldrb r0,[r0]
 5dc:	014a      	lsr r0,r0,r2
 5de:	0000      	beq 5de <_impure_data+0x3de>
 5e0:	0101      	ldrb r0,[r0,r2]
 5e2:	f601      	ldrb r7,[r5,r4]
 5e4:	0df2 0100 	*unknown*
 5e8:	0101      	ldrb r0,[r0,r2]
 5ea:	0001      	ldrb r0,[r0,r0]
 5ec:	0000      	beq 5ec <_impure_data+0x3ec>
 5ee:	0001      	ldrb r0,[r0,r0]
 5f0:	0100      	beq 5f2 <_impure_data+0x3f2>
 5f2:	682f 6d6f 	*unknown*
 5f6:	2f65      	ldrd r1,[r3],r6
 5f8:	7365      	ldrd r3,[r4],r6
 5fa:	6d69 652f 	*unknown*
 5fe:	6473 2d6b 	*unknown*
 602:	7573 6d62 	*unknown*
 606:	646f 6c75 	*unknown*
 60a:	2f65      	ldrd r1,[r3],r6
 60c:	7562 6c69 	*unknown*
 610:	7364      	ldrd r3,[r4,0x6]
 612:	622f 2d64 	*unknown*
 616:	7261      	ldrd r3,[r4,r4]
 618:	766d 6c37 	*unknown*
 61c:	322d 3130 	*unknown*
 620:	2e35      	strh r1,[r3],r4
 622:	2f31      	strh r1,[r3,r6]
 624:	6367      	fix r3,r0
 626:	2f63      	mov r1,0x7b
 628:	6e69 6c63 	*unknown*
 62c:	6475      	strd r3,[r1],r0
 62e:	0065      	ldrd r0,[r0],r0
 630:	682f 6d6f 	*unknown*
 634:	2f65      	ldrd r1,[r3],r6
 636:	7365      	ldrd r3,[r4],r6
 638:	6d69 652f 	*unknown*
 63c:	6473 2d6b 	*unknown*
 640:	7573 6d62 	*unknown*
 644:	646f 6c75 	*unknown*
 648:	2f65      	ldrd r1,[r3],r6
 64a:	656e      	asr r3,r1,0xb
 64c:	6c77      	fabs rd,rn
 64e:	6269 6e2f 	*unknown*
 652:	7765      	ldrd r3,[r5],r6
 654:	696c 2f62 	ldrd fp,[r26],-0x312
 658:	696c 6362 	ldrd r27,[r2],-0x312
 65c:	692f 636e 	*unknown*
 660:	756c 6564 	ldrd r27,[sp,-0x322]
 664:	2f00      	beq 6c2 <_epiphany_start+0x42>
 666:	6f68 656d 	bgt cae144 <__PROG_SIZE_FOR_CORE_+0xbae144>
 66a:	652f 6973 	*unknown*
 66e:	2f6d 7365 	*unknown*
 672:	6b64      	ldrd r3,[r2,0x6]
 674:	732d 6275 	*unknown*
 678:	6f6d 7564 	*unknown*
 67c:	656c 6e2f 	ldrd r27,[r25],+0x17a
 680:	7765      	ldrd r3,[r5],r6
 682:	696c 2f62 	ldrd fp,[r26],-0x312
 686:	656e      	asr r3,r1,0xb
 688:	6c77      	fabs rd,rn
 68a:	6269 6c2f 	*unknown*
 68e:	6269 2f63 	*unknown*
 692:	6e69 6c63 	*unknown*
 696:	6475      	strd r3,[r1],r0
 698:	2f65      	ldrd r1,[r3],r6
 69a:	7973 0073 	*unknown*
 69e:	682f 6d6f 	*unknown*
 6a2:	2f65      	ldrd r1,[r3],r6
 6a4:	7365      	ldrd r3,[r4],r6
 6a6:	6d69 652f 	*unknown*
 6aa:	6473 2d6b 	*unknown*
 6ae:	7573 6d62 	*unknown*
 6b2:	646f 6c75 	*unknown*
 6b6:	2f65      	ldrd r1,[r3],r6
 6b8:	6e75      	strd r3,[r3],r4
 6ba:	7369 6372 	*unknown*
 6be:	322d 3130 	*unknown*
 6c2:	2e35      	strh r1,[r3],r4
 6c4:	2f31      	strh r1,[r3,r6]
 6c6:	656e      	asr r3,r1,0xb
 6c8:	6c77      	fabs rd,rn
 6ca:	6269 6c2f 	*unknown*
 6ce:	6269 2f63 	*unknown*
 6d2:	7473 6c64 	*unknown*
 6d6:	6269 0000 	ldrd r3,[r0,+r4]
 6da:	7865      	ldrd r3,[r6],r0
 6dc:	7469 632e 	*unknown*
 6e0:	0400      	beq 6e8 <RDS>
 6e2:	0000      	beq 6e2 <_epiphany_start+0x62>
 6e4:	7973 2f73 	*unknown*
 6e8:	6f6c 6b63 	ldrd r27,[r19],-0x31e
 6ec:	682e      	asr r3,r2,0x1
 6ee:	0200      	beq 6f2 <RDS+0xa>
 6f0:	0000      	beq 6f0 <RDS+0x8>
 6f2:	7973 2f73 	*unknown*
 6f6:	745f 7079 	*unknown*
 6fa:	7365      	ldrd r3,[r4],r6
 6fc:	682e      	asr r3,r2,0x1
 6fe:	0200      	beq 702 <RDS+0x1a>
 700:	0000      	beq 700 <RDS+0x18>
 702:	7473 6464 	*unknown*
 706:	6665      	ldrd r3,[r1],r4
 708:	682e      	asr r3,r2,0x1
 70a:	0100      	beq 70c <RDS+0x24>
 70c:	0000      	beq 70c <RDS+0x24>
 70e:	7973 2f73 	*unknown*
 712:	6572 6e65 	*unknown*
 716:	2e74      	strd r1,[r3,0x4]
 718:	0068 0002 	bgt b18 <_e_get_global_address+0x20>
 71c:	7300      	beq 802 <__HEAP_SIZE_FOR_CORE_+0x2>
 71e:	6474      	strd r3,[r1]
 720:	696c 2e62 	ldrd fp,[r26],+0x312
 724:	0068 0002 	bgt b24 <_e_get_global_address+0x2c>
 728:	0000      	beq 728 <_deregister_tm_clones+0x18>
 72a:	0500      	beq 734 <_deregister_tm_clones+0x24>
 72c:	8002      	moveq r4,r0
 72e:	0000      	beq 72e <_deregister_tm_clones+0x1e>
 730:	5200      	beq 7d4 <___do_global_dtors_aux+0x68>
 732:	0500      	beq 73c <_register_tm_clones>
 734:	8402      	moveq r4,r1
 736:	0000      	beq 736 <_deregister_tm_clones+0x26>
 738:	1800      	beq 768 <_register_tm_clones+0x2c>
 73a:	0500      	beq 744 <_register_tm_clones+0x8>
 73c:	8e02 0000 	*unknown*
 740:	1600      	beq 76c <___do_global_dtors_aux>
 742:	0500      	beq 74c <_register_tm_clones+0x10>
 744:	9602 0000 	*unknown*
 748:	0100      	beq 74a <_register_tm_clones+0xe>
 74a:	0500      	beq 754 <_register_tm_clones+0x18>
 74c:	9802      	moveq r4,r6
 74e:	0000      	beq 74e <_register_tm_clones+0x12>
 750:	1800      	beq 780 <___do_global_dtors_aux+0x14>
 752:	0500      	beq 75c <_register_tm_clones+0x20>
 754:	9a02 0000 	*unknown*
 758:	1900      	beq 78a <___do_global_dtors_aux+0x1e>
 75a:	0500      	beq 764 <_register_tm_clones+0x28>
 75c:	ac02      	moveq r5,r3
 75e:	0000      	beq 75e <_register_tm_clones+0x22>
 760:	1800      	beq 790 <___do_global_dtors_aux+0x24>
 762:	0500      	beq 76c <___do_global_dtors_aux>
 764:	ae02 0000 	*unknown*
 768:	1800      	beq 798 <___do_global_dtors_aux+0x2c>
 76a:	0500      	beq 774 <___do_global_dtors_aux+0x8>
 76c:	ba02 0000 	*unknown*
 770:	0000      	beq 770 <___do_global_dtors_aux+0x4>
 772:	0101      	ldrb r0,[r0,r2]
 774:	010e      	asr r0,r0,0x8
 776:	0000      	beq 776 <___do_global_dtors_aux+0xa>
 778:	0004      	ldrb r0,[r0]
 77a:	00fe 0000 	*unknown*
 77e:	0101      	ldrb r0,[r0,r2]
 780:	f601      	ldrb r7,[r5,r4]
 782:	0df2 0100 	*unknown*
 786:	0101      	ldrb r0,[r0,r2]
 788:	0001      	ldrb r0,[r0,r0]
 78a:	0000      	beq 78a <___do_global_dtors_aux+0x1e>
 78c:	0001      	ldrb r0,[r0,r0]
 78e:	0100      	beq 790 <___do_global_dtors_aux+0x24>
 790:	682f 6d6f 	*unknown*
 794:	2f65      	ldrd r1,[r3],r6
 796:	7365      	ldrd r3,[r4],r6
 798:	6d69 652f 	*unknown*
 79c:	6473 2d6b 	*unknown*
 7a0:	7573 6d62 	*unknown*
 7a4:	646f 6c75 	*unknown*
 7a8:	2f65      	ldrd r1,[r3],r6
 7aa:	7562 6c69 	*unknown*
 7ae:	7364      	ldrd r3,[r4,0x6]
 7b0:	622f 2d64 	*unknown*
 7b4:	7261      	ldrd r3,[r4,r4]
 7b6:	766d 6c37 	*unknown*
 7ba:	322d 3130 	*unknown*
 7be:	2e35      	strh r1,[r3],r4
 7c0:	2f31      	strh r1,[r3,r6]
 7c2:	6367      	fix r3,r0
 7c4:	2f63      	mov r1,0x7b
 7c6:	6e69 6c63 	*unknown*
 7ca:	6475      	strd r3,[r1],r0
 7cc:	0065      	ldrd r0,[r0],r0
 7ce:	682f 6d6f 	*unknown*
 7d2:	2f65      	ldrd r1,[r3],r6
 7d4:	7365      	ldrd r3,[r4],r6
 7d6:	6d69 652f 	*unknown*
 7da:	6473 2d6b 	*unknown*
 7de:	7573 6d62 	*unknown*
 7e2:	646f 6c75 	*unknown*
 7e6:	2f65      	ldrd r1,[r3],r6
 7e8:	656e      	asr r3,r1,0xb
 7ea:	6c77      	fabs rd,rn
 7ec:	6269 6e2f 	*unknown*
 7f0:	7765      	ldrd r3,[r5],r6
 7f2:	696c 2f62 	ldrd fp,[r26],-0x312
 7f6:	696c 6362 	ldrd r27,[r2],-0x312
 7fa:	692f 636e 	*unknown*
 7fe:	756c 6564 	ldrd r27,[sp,-0x322]
 802:	732f 7379 	*unknown*
 806:	2f00      	beq 864 <_main+0x44>
 808:	6f68 656d 	bgt cae2e6 <__PROG_SIZE_FOR_CORE_+0xbae2e6>
 80c:	652f 6973 	*unknown*
 810:	2f6d 7365 	*unknown*
 814:	6b64      	ldrd r3,[r2,0x6]
 816:	732d 6275 	*unknown*
 81a:	6f6d 7564 	*unknown*
 81e:	656c 752f 	ldrd r27,[r41,-0x17a]
 822:	696e      	asr r3,r2,0xb
 824:	7273 2d63 	*unknown*
 828:	3032      	movgteu r1,r4
 82a:	3531      	strh r1,[r5,r2]
 82c:	312e      	asr r1,r4,0x9
 82e:	6e2f 7765 	*unknown*
 832:	696c 2f62 	ldrd fp,[r26],-0x312
 836:	696c 6362 	ldrd r27,[r2],-0x312
 83a:	722f 6565 	*unknown*
 83e:	746e      	asr r3,r5,0x3
 840:	0000      	beq 840 <_main+0x20>
 842:	6f6c 6b63 	ldrd r27,[r19],-0x31e
 846:	682e      	asr r3,r2,0x1
 848:	0200      	beq 84c <_main+0x2c>
 84a:	0000      	beq 84a <_main+0x2a>
 84c:	745f 7079 	*unknown*
 850:	7365      	ldrd r3,[r4],r6
 852:	682e      	asr r3,r2,0x1
 854:	0200      	beq 858 <_main+0x38>
 856:	0000      	beq 856 <_main+0x36>
 858:	7473 6464 	*unknown*
 85c:	6665      	ldrd r3,[r1],r4
 85e:	682e      	asr r3,r2,0x1
 860:	0100      	beq 862 <_main+0x42>
 862:	0000      	beq 862 <_main+0x42>
 864:	6572 6e65 	*unknown*
 868:	2e74      	strd r1,[r3,0x4]
 86a:	0068 0002 	bgt c6a <_e_reg_read+0x66>
 86e:	6900      	beq 940 <_e_dma_copy+0xd0>
 870:	706d 7275 	*unknown*
 874:	2e65      	ldrd r1,[r3],r4
 876:	0063      	mov r0,0x3
 878:	0003      	mov r0,0x0
 87a:	0000      	beq 87a <_e_dma_copy+0xa>
 87c:	0500      	beq 886 <_e_dma_copy+0x16>
 87e:	bc02      	moveq r5,r7
 880:	0000      	beq 880 <_e_dma_copy+0x10>
 882:	0000      	beq 882 <_e_dma_copy+0x12>
 884:	0101      	ldrb r0,[r0,r2]
 886:	02a3      	mov r0,0x15
 888:	0000      	beq 888 <_e_dma_copy+0x18>
 88a:	0004      	ldrb r0,[r0]
 88c:	0106      	lsr r0,r0,0x8
 88e:	0000      	beq 88e <_e_dma_copy+0x1e>
 890:	0101      	ldrb r0,[r0,r2]
 892:	f601      	ldrb r7,[r5,r4]
 894:	0df2 0100 	*unknown*
 898:	0101      	ldrb r0,[r0,r2]
 89a:	0001      	ldrb r0,[r0,r0]
 89c:	0000      	beq 89c <_e_dma_copy+0x2c>
 89e:	0001      	ldrb r0,[r0,r0]
 8a0:	0100      	beq 8a2 <_e_dma_copy+0x32>
 8a2:	682f 6d6f 	*unknown*
 8a6:	2f65      	ldrd r1,[r3],r6
 8a8:	7365      	ldrd r3,[r4],r6
 8aa:	6d69 652f 	*unknown*
 8ae:	6473 2d6b 	*unknown*
 8b2:	7573 6d62 	*unknown*
 8b6:	646f 6c75 	*unknown*
 8ba:	2f65      	ldrd r1,[r3],r6
 8bc:	7562 6c69 	*unknown*
 8c0:	7364      	ldrd r3,[r4,0x6]
 8c2:	622f 2d64 	*unknown*
 8c6:	7261      	ldrd r3,[r4,r4]
 8c8:	766d 6c37 	*unknown*
 8cc:	322d 3130 	*unknown*
 8d0:	2e35      	strh r1,[r3],r4
 8d2:	2f31      	strh r1,[r3,r6]
 8d4:	6367      	fix r3,r0
 8d6:	2f63      	mov r1,0x7b
 8d8:	6e69 6c63 	*unknown*
 8dc:	6475      	strd r3,[r1],r0
 8de:	0065      	ldrd r0,[r0],r0
 8e0:	682f 6d6f 	*unknown*
 8e4:	2f65      	ldrd r1,[r3],r6
 8e6:	7365      	ldrd r3,[r4],r6
 8e8:	6d69 652f 	*unknown*
 8ec:	6473 2d6b 	*unknown*
 8f0:	7573 6d62 	*unknown*
 8f4:	646f 6c75 	*unknown*
 8f8:	2f65      	ldrd r1,[r3],r6
 8fa:	656e      	asr r3,r1,0xb
 8fc:	6c77      	fabs rd,rn
 8fe:	6269 6e2f 	*unknown*
 902:	7765      	ldrd r3,[r5],r6
 904:	696c 2f62 	ldrd fp,[r26],-0x312
 908:	696c 6362 	ldrd r27,[r2],-0x312
 90c:	692f 636e 	*unknown*
 910:	756c 6564 	ldrd r27,[sp,-0x322]
 914:	732f 7379 	*unknown*
 918:	2f00      	beq 976 <_e_dma_copy+0x106>
 91a:	6f68 656d 	bgt cae3f8 <__PROG_SIZE_FOR_CORE_+0xbae3f8>
 91e:	652f 6973 	*unknown*
 922:	2f6d 7365 	*unknown*
 926:	6b64      	ldrd r3,[r2,0x6]
 928:	732d 6275 	*unknown*
 92c:	6f6d 7564 	*unknown*
 930:	656c 752f 	ldrd r27,[r41,-0x17a]
 934:	696e      	asr r3,r2,0xb
 936:	7273 2d63 	*unknown*
 93a:	3032      	movgteu r1,r4
 93c:	3531      	strh r1,[r5,r2]
 93e:	312e      	asr r1,r4,0x9
 940:	6e2f 7765 	*unknown*
 944:	696c 2f62 	ldrd fp,[r26],-0x312
 948:	696c 6362 	ldrd r27,[r2],-0x312
 94c:	732f 6474 	*unknown*
 950:	696c 0062 	ldrd r3,[r2,+0x312]
 954:	5f00      	beq a12 <_e_dma_start+0x62>
 956:	635f 6c61 	*unknown*
 95a:	5f6c 7461 	ldrd r26,[r47,+0x30e]
 95e:	7865      	ldrd r3,[r6],r0
 960:	7469 632e 	*unknown*
 964:	0300      	beq 96a <_e_dma_copy+0xfa>
 966:	0000      	beq 966 <_e_dma_copy+0xf6>
 968:	6f6c 6b63 	ldrd r27,[r19],-0x31e
 96c:	682e      	asr r3,r2,0x1
 96e:	0200      	beq 972 <_e_dma_copy+0x102>
 970:	0000      	beq 970 <_e_dma_copy+0x100>
 972:	745f 7079 	*unknown*
 976:	7365      	ldrd r3,[r4],r6
 978:	682e      	asr r3,r2,0x1
 97a:	0200      	beq 97e <_e_dma_copy+0x10e>
 97c:	0000      	beq 97c <_e_dma_copy+0x10c>
 97e:	7473 6464 	*unknown*
 982:	6665      	ldrd r3,[r1],r4
 984:	682e      	asr r3,r2,0x1
 986:	0100      	beq 988 <_e_dma_copy+0x118>
 988:	0000      	beq 988 <_e_dma_copy+0x118>
 98a:	6572 6e65 	*unknown*
 98e:	2e74      	strd r1,[r3,0x4]
 990:	0068 0002 	bgt d90 <_end+0x40>
 994:	0000      	beq 994 <_e_dma_copy+0x124>
 996:	0500      	beq 9a0 <_e_dma_copy+0x130>
 998:	c002      	moveq r6,r0
 99a:	0000      	beq 99a <_e_dma_copy+0x12a>
 99c:	5800      	beq a4c <_e_dma_start+0x9c>
 99e:	0500      	beq 9a8 <_e_dma_copy+0x138>
 9a0:	d802      	moveq r6,r6
 9a2:	0000      	beq 9a2 <_e_dma_copy+0x132>
 9a4:	5b00      	beq a5a <_e_dma_start+0xaa>
 9a6:	0500      	beq 9b0 <_e_dma_start>
 9a8:	dc02      	moveq r6,r7
 9aa:	0000      	beq 9aa <_e_dma_copy+0x13a>
 9ac:	0300      	beq 9b2 <_e_dma_start+0x2>
 9ae:	7fbc 0001 	strh r3,[r7,+0xf]
 9b2:	0205      	ldrb r0,[r0],r4
 9b4:	00f2 0000 	*unknown*
 9b8:	0033      	sub r0,r0,0
 9ba:	0205      	ldrb r0,[r0],r4
 9bc:	00f6      	lsl r0,r0,0x7
 9be:	0000      	beq 9be <_e_dma_start+0xe>
 9c0:	0023      	mov r0,0x1
 9c2:	0205      	ldrb r0,[r0],r4
 9c4:	00fa      	orr r0,r0,r1
 9c6:	0000      	beq 9c6 <_e_dma_start+0x16>
 9c8:	0033      	sub r0,r0,0
 9ca:	0205      	ldrb r0,[r0],r4
 9cc:	00fe 0000 	*unknown*
 9d0:	bc03      	mov r5,0xe0
 9d2:	017f 0500 	*unknown*
 9d6:	0202 0001 	*unknown*
 9da:	2600      	beq a26 <_e_dma_start+0x76>
 9dc:	0500      	beq 9e6 <_e_dma_start+0x36>
 9de:	0602 0001 	*unknown*
 9e2:	1900      	beq a14 <_e_dma_start+0x64>
 9e4:	0500      	beq 9ee <_e_dma_start+0x3e>
 9e6:	0a02 0001 	*unknown*
 9ea:	1600      	beq a16 <_e_dma_start+0x66>
 9ec:	0500      	beq 9f6 <_e_dma_start+0x46>
 9ee:	0e02 0001 	*unknown*
 9f2:	1f00      	beq a30 <_e_dma_start+0x80>
 9f4:	0500      	beq 9fe <_e_dma_start+0x4e>
 9f6:	2602 0001 	*unknown*
 9fa:	0000      	beq 9fa <_e_dma_start+0x4a>
 9fc:	0402      	moveq r0,r1
 9fe:	1e01      	ldrb r0,[r7,r4]
 a00:	0500      	beq a0a <_e_dma_start+0x5a>
 a02:	2c02      	moveq r1,r3
 a04:	0001      	ldrb r0,[r0,r0]
 a06:	0000      	beq a06 <_e_dma_start+0x56>
 a08:	0402      	moveq r0,r1
 a0a:	1000      	beq a2a <_e_dma_start+0x7a>
 a0c:	0500      	beq a16 <_e_dma_start+0x66>
 a0e:	3402      	moveq r1,r5
 a10:	0001      	ldrb r0,[r0,r0]
 a12:	1e00      	beq a4e <_e_dma_start+0x9e>
 a14:	0500      	beq a1e <_e_dma_start+0x6e>
 a16:	3802      	moveq r1,r6
 a18:	0001      	ldrb r0,[r0,r0]
 a1a:	1d00      	beq a54 <_e_dma_start+0xa4>
 a1c:	0500      	beq a26 <_e_dma_start+0x76>
 a1e:	4402      	moveq r2,r1
 a20:	0001      	ldrb r0,[r0,r0]
 a22:	1600      	beq a4e <_e_dma_start+0x9e>
 a24:	0500      	beq a2e <_e_dma_start+0x7e>
 a26:	4802      	moveq r2,r2
 a28:	0001      	ldrb r0,[r0,r0]
 a2a:	1800      	beq a5a <_e_dma_start+0xaa>
 a2c:	0500      	beq a36 <_e_dma_start+0x86>
 a2e:	4a02 0001 	*unknown*
 a32:	1a00      	beq a66 <_e_dma_start+0xb6>
 a34:	0500      	beq a3e <_e_dma_start+0x8e>
 a36:	4e02 0001 	*unknown*
 a3a:	1a00      	beq a6e <_e_reg_write+0x6>
 a3c:	0500      	beq a46 <_e_dma_start+0x96>
 a3e:	5202 0001 	*unknown*
 a42:	1d00      	beq a7c <_e_reg_write+0x14>
 a44:	0500      	beq a4e <_e_dma_start+0x9e>
 a46:	5602 0001 	*unknown*
 a4a:	0300      	beq a50 <_e_dma_start+0xa0>
 a4c:	016b 0500 	*unknown*
 a50:	5a02 0001 	*unknown*
 a54:	2c00      	beq aac <_e_reg_write+0x44>
 a56:	0500      	beq a60 <_e_dma_start+0xb0>
 a58:	5c02      	moveq r2,r7
 a5a:	0001      	ldrb r0,[r0,r0]
 a5c:	1400      	beq a84 <_e_reg_write+0x1c>
 a5e:	0500      	beq a68 <_e_reg_write>
 a60:	6002      	moveq r3,r0
 a62:	0001      	ldrb r0,[r0,r0]
 a64:	1a00      	beq a98 <_e_reg_write+0x30>
 a66:	0500      	beq a70 <_e_reg_write+0x8>
 a68:	6202 0001 	*unknown*
 a6c:	1900      	beq a9e <_e_reg_write+0x36>
 a6e:	0500      	beq a78 <_e_reg_write+0x10>
 a70:	6a02 0001 	*unknown*
 a74:	1800      	beq aa4 <_e_reg_write+0x3c>
 a76:	0500      	beq a80 <_e_reg_write+0x18>
 a78:	7402      	moveq r3,r5
 a7a:	0001      	ldrb r0,[r0,r0]
 a7c:	1e00      	beq ab8 <_e_reg_write+0x50>
 a7e:	0500      	beq a88 <_e_reg_write+0x20>
 a80:	7c02      	moveq r3,r7
 a82:	0001      	ldrb r0,[r0,r0]
 a84:	0000      	beq a84 <_e_reg_write+0x1c>
 a86:	0402      	moveq r0,r1
 a88:	0601      	ldrb r0,[r1,r4]
 a8a:	0001      	ldrb r0,[r0,r0]
 a8c:	0205      	ldrb r0,[r0],r4
 a8e:	0184      	ldrb r0,[r0,0x3]
 a90:	0000      	beq a90 <_e_reg_write+0x28>
 a92:	0200      	beq a96 <_e_reg_write+0x2e>
 a94:	0004      	ldrb r0,[r0]
 a96:	0306      	lsr r0,r0,0x18
 a98:	015d 0500 	str r0,[r8],+r18
 a9c:	8c02      	moveq r4,r3
 a9e:	0001      	ldrb r0,[r0,r0]
 aa0:	4300      	beq b26 <_e_get_global_address+0x2e>
 aa2:	0500      	beq aac <_e_reg_write+0x44>
 aa4:	9202 0001 	*unknown*
 aa8:	3200      	beq b0c <_e_get_global_address+0x14>
 aaa:	0500      	beq ab4 <_e_reg_write+0x4c>
 aac:	b602 0001 	*unknown*
 ab0:	0300      	beq ab6 <_e_reg_write+0x4e>
 ab2:	0153 0500 	*unknown*
 ab6:	ba02 0001 	*unknown*
 aba:	0300      	beq ac0 <_e_reg_write+0x58>
 abc:	0174      	strd r0,[r0,0x2]
 abe:	0500      	beq ac8 <_e_reg_write+0x60>
 ac0:	be02 0001 	*unknown*
 ac4:	2700      	beq b12 <_e_get_global_address+0x1a>
 ac6:	0500      	beq ad0 <_e_reg_write+0x68>
 ac8:	c602 0001 	*unknown*
 acc:	2a00      	beq b20 <_e_get_global_address+0x28>
 ace:	0500      	beq ad8 <_e_reg_write+0x70>
 ad0:	cc02      	moveq r6,r3
 ad2:	0001      	ldrb r0,[r0,r0]
 ad4:	0000      	beq ad4 <_e_reg_write+0x6c>
 ad6:	0402      	moveq r0,r1
 ad8:	0601      	ldrb r0,[r1,r4]
 ada:	0001      	ldrb r0,[r0,r0]
 adc:	0205      	ldrb r0,[r0],r4
 ade:	01d2      	rti
 ae0:	0000      	beq ae0 <_e_reg_write+0x78>
 ae2:	0200      	beq ae6 <_e_reg_write+0x7e>
 ae4:	0004      	ldrb r0,[r0]
 ae6:	1f06      	lsr r0,r7,0x18
 ae8:	0500      	beq af2 <_e_reg_write+0x8a>
 aea:	d402      	moveq r6,r5
 aec:	0001      	ldrb r0,[r0,r0]
 aee:	1200      	beq b12 <_e_get_global_address+0x1a>
 af0:	0500      	beq afa <_e_get_global_address+0x2>
 af2:	d802      	moveq r6,r6
 af4:	0001      	ldrb r0,[r0,r0]
 af6:	1c00      	beq b2e <_e_get_global_address+0x36>
 af8:	0500      	beq b02 <_e_get_global_address+0xa>
 afa:	dc02      	moveq r6,r7
 afc:	0001      	ldrb r0,[r0,r0]
 afe:	1800      	beq b2e <_e_get_global_address+0x36>
 b00:	0500      	beq b0a <_e_get_global_address+0x12>
 b02:	e002      	moveq r7,r0
 b04:	0001      	ldrb r0,[r0,r0]
 b06:	0000      	beq b06 <_e_get_global_address+0xe>
 b08:	0402      	moveq r0,r1
 b0a:	0301      	ldrb r0,[r0,r6]
 b0c:	7fbf 0001 	*unknown*
 b10:	0205      	ldrb r0,[r0],r4
 b12:	01e8 0000 	b b14 <_e_get_global_address+0x1c>
 b16:	0200      	beq b1a <_e_get_global_address+0x22>
 b18:	0004      	ldrb r0,[r0]
 b1a:	005c 0205 	str r0,[r0],+0x28
 b1e:	01ec 0000 	ldrd r0,[r0,+0x3]
 b22:	0018 0205 	bne 41522 <__stack_start_+0x39532>
 b26:	01f4      	strd r0,[r0,0x3]
 b28:	0000      	beq b28 <_e_get_global_address+0x30>
 b2a:	0100 	beq b2c <_e_get_global_address+0x34>
 b2c:	Address 0x00000b2c is out of bounds.


Disassembly of section .debug_frame:

00000000 <.debug_frame>:
   0:	000c 0000 	ldrb r0,[r0,+0x0]
   4:	ffff ffff 	*unknown*
   8:	0003      	mov r0,0x0
   a:	7c01      	ldrb r3,[r7,r0]
   c:	0c0e      	asr r0,r3,0x0
   e:	080d 0020 	*unknown*
  12:	0000      	beq 12 <__CORE_COL_+0xa>
  14:	0000      	beq 14 <__CORE_COL_+0xc>
  16:	0000      	beq 16 <__CORE_COL_+0xe>
  18:	0870      	bgte 28 <_e_group_config>
  1a:	0000      	beq 1a <__CORE_COL_+0x12>
  1c:	0140      	blteu 1e <__CORE_COL_+0x16>
  1e:	0000      	beq 1e <__CORE_COL_+0x16>
  20:	0404      	ldrb r0,[r1]
  22:	0000      	beq 22 <__CORE_ROW_+0x2>
  24:	0e00      	beq 40 <_e_group_config+0x18>
  26:	8b38 0402 	bgteu 8053c <__stack_start_+0x7854c>
  2a:	0008 0000 	beq 2a <_e_group_config+0x2>
  2e:	0b0d 018e 	*unknown*
  32:	0000      	beq 32 <_e_group_config+0xa>
  34:	000c 0000 	ldrb r0,[r0,+0x0]
  38:	ffff ffff 	*unknown*
  3c:	0003      	mov r0,0x0
  3e:	7c01      	ldrb r3,[r7,r0]
  40:	0c0e      	asr r0,r3,0x0
  42:	080d 0020 	*unknown*
  46:	0000      	beq 46 <_e_group_config+0x1e>
  48:	0034      	strh r0,[r0]
  4a:	0000      	beq 4a <_e_group_config+0x22>
  4c:	09b0      	bbne 5e <.normal_start+0x6>
  4e:	0000      	beq 4e <_e_group_config+0x26>
  50:	00b6      	lsl r0,r0,0x5
  52:	0000      	beq 52 <_e_emem_config+0x2>
  54:	0404      	ldrb r0,[r1]
  56:	0000      	beq 56 <_e_emem_config+0x6>
  58:	0e00      	beq 74 <__dma_copy_descriptor_+0xc>
  5a:	8b28 0402 	bgtu 80570 <__stack_start_+0x78580>
  5e:	0008 0000 	beq 5e <.normal_start+0x6>
  62:	0b0d 018e 	*unknown*
  66:	0000      	beq 66 <.normal_start+0xe>
  68:	000c 0000 	ldrb r0,[r0,+0x0]
  6c:	ffff ffff 	*unknown*
  70:	0003      	mov r0,0x0
  72:	7c01      	ldrb r3,[r7,r0]
  74:	0c0e      	asr r0,r3,0x0
  76:	080d 0020 	*unknown*
  7a:	0000      	beq 7a <__dma_copy_descriptor_+0x12>
  7c:	0068 0000 	bgt 7c <__dma_copy_descriptor_+0x14>
  80:	0a68 0000 	bgt 94 <_exit+0x14>
  84:	008e      	asr r0,r0,0x4
  86:	0000      	beq 86 <_exit+0x6>
  88:	0404      	ldrb r0,[r1]
  8a:	0000      	beq 8a <_exit+0xa>
  8c:	0e00      	beq a8 <_exit+0x28>
  8e:	8b28 0402 	bgtu 805a4 <__stack_start_+0x785b4>
  92:	0008 0000 	beq 92 <_exit+0x12>
  96:	0b0d 018e 	*unknown*
  9a:	0000      	beq 9a <_exit+0x1a>
  9c:	000c 0000 	ldrb r0,[r0,+0x0]
  a0:	ffff ffff 	*unknown*
  a4:	0003      	mov r0,0x0
  a6:	7c01      	ldrb r3,[r7,r0]
  a8:	0c0e      	asr r0,r3,0x0
  aa:	080d 0020 	*unknown*
  ae:	0000      	beq ae <_exit+0x2e>
  b0:	009c 0000 	strb r0,[r0,+0x1]
  b4:	0af8 0000 	bl c8 <___call_exitprocs+0x8>
  b8:	00a0      	bbeq b8 <_exit+0x38>
  ba:	0000      	beq ba <_exit+0x3a>
  bc:	0404      	ldrb r0,[r1]
  be:	0000      	beq be <__global_impure_ptr+0x2>
  c0:	0e00      	beq dc <___call_exitprocs+0x1c>
  c2:	8b28 0402 	bgtu 805d8 <__stack_start_+0x785e8>
  c6:	0008 0000 	beq c6 <___call_exitprocs+0x6>
  ca:	0b0d 018e 	*unknown*
  ce:	0000      	beq ce <___call_exitprocs+0xe>
  d0:	000c 0000 	ldrb r0,[r0,+0x0]
  d4:	ffff ffff 	*unknown*
  d8:	0003      	mov r0,0x0
  da:	7c01      	ldrb r3,[r7,r0]
  dc:	0c0e      	asr r0,r3,0x0
  de:	080d 0020 	*unknown*
  e2:	0000      	beq e2 <___call_exitprocs+0x22>
  e4:	00d0      	bblte e4 <___call_exitprocs+0x24>
  e6:	0000      	beq e6 <___call_exitprocs+0x26>
  e8:	0b98 0000 	blte fe <___call_exitprocs+0x3e>
  ec:	006a      	asr r0,r0,r0
  ee:	0000      	beq ee <___call_exitprocs+0x2e>
  f0:	0404      	ldrb r0,[r1]
  f2:	0000      	beq f2 <___call_exitprocs+0x32>
  f4:	0e00      	beq 110 <___call_exitprocs+0x50>
  f6:	8b18 0402 	bne 8060c <__stack_start_+0x7861c>
  fa:	0008 0000 	beq fa <___call_exitprocs+0x3a>
  fe:	0b0d 018e 	*unknown*
 102:	0000      	beq 102 <___call_exitprocs+0x42>
 104:	000c 0000 	ldrb r0,[r0,+0x0]
 108:	ffff ffff 	*unknown*
 10c:	0003      	mov r0,0x0
 10e:	7c01      	ldrb r3,[r7,r0]
 110:	0c0e      	asr r0,r3,0x0
 112:	080d 0020 	*unknown*
 116:	0000      	beq 116 <___call_exitprocs+0x56>
 118:	0104      	ldrb r0,[r0,0x2]
 11a:	0000      	beq 11a <___call_exitprocs+0x5a>
 11c:	0c04      	ldrb r0,[r3]
 11e:	0000      	beq 11e <___call_exitprocs+0x5e>
 120:	0082      	movlt r0,r0
 122:	0000      	beq 122 <___call_exitprocs+0x62>
 124:	0404      	ldrb r0,[r1]
 126:	0000      	beq 126 <___call_exitprocs+0x66>
 128:	0e00      	beq 144 <___call_exitprocs+0x84>
 12a:	8b20      	bgtu 40 <_e_group_config+0x18>
 12c:	0402      	moveq r0,r1
 12e:	0008 0000 	beq 12e <___call_exitprocs+0x6e>
 132:	0b0d 018e 	*unknown*
 136:	0000      	beq 136 <___call_exitprocs+0x76>
 138:	000c 0000 	ldrb r0,[r0,+0x0]
 13c:	ffff ffff 	*unknown*
 140:	0003      	mov r0,0x0
 142:	7c01      	ldrb r3,[r7,r0]
 144:	0c0e      	asr r0,r3,0x0
 146:	080d 001c 	*unknown*
 14a:	0000      	beq 14a <___call_exitprocs+0x8a>
 14c:	0138 0000 	bgteu 14e <___call_exitprocs+0x8e>
 150:	0c88 0000 	blt 168 <___call_exitprocs+0xa8>
 154:	0018 0000 	bne 154 <___call_exitprocs+0x94>
 158:	0404      	ldrb r0,[r1]
 15a:	0000      	beq 15a <___call_exitprocs+0x9a>
 15c:	0e00      	beq 178 <___call_exitprocs+0xb8>
 15e:	8b18 0402 	bne 80674 <__stack_start_+0x78684>
 162:	0004      	ldrb r0,[r0]
 164:	0000      	beq 164 <___call_exitprocs+0xa4>
 166:	0b0d 000c 	*unknown*
 16a:	0000      	beq 16a <___call_exitprocs+0xaa>
 16c:	ffff ffff 	*unknown*
 170:	0003      	mov r0,0x0
 172:	7c01      	ldrb r3,[r7,r0]
 174:	0c0e      	asr r0,r3,0x0
 176:	080d 0020 	*unknown*
 17a:	0000      	beq 17a <___call_exitprocs+0xba>
 17c:	0168 0000 	bgt 17e <___call_exitprocs+0xbe>
 180:	0080      	blt 180 <___call_exitprocs+0xc0>
 182:	0000      	beq 182 <___call_exitprocs+0xc2>
 184:	003a      	sub r0,r0,r0
 186:	0000      	beq 186 <___call_exitprocs+0xc6>
 188:	0404      	ldrb r0,[r1]
 18a:	0000      	beq 18a <___call_exitprocs+0xca>
 18c:	0e00      	beq 1a8 <___call_exitprocs+0xe8>
 18e:	8418 0402 	bne 80696 <__stack_start_+0x786a6>
 192:	0012      	movne r0,r0
 194:	0000      	beq 194 <___call_exitprocs+0xd4>
 196:	018b 038e 	*unknown*
 19a:	0000      	beq 19a <___call_exitprocs+0xda>
 19c:	000c 0000 	ldrb r0,[r0,+0x0]
 1a0:	ffff ffff 	*unknown*
 1a4:	0003      	mov r0,0x0
 1a6:	7c01      	ldrb r3,[r7,r0]
 1a8:	0c0e      	asr r0,r3,0x0
 1aa:	080d 0044 	*unknown*
 1ae:	0000      	beq 1ae <___call_exitprocs+0xee>
 1b0:	019c 0000 	strb r0,[r0,+0x3]
 1b4:	00c0      	bblt 1b4 <___call_exitprocs+0xf4>
 1b6:	0000      	beq 1b6 <___call_exitprocs+0xf6>
 1b8:	0134      	strh r0,[r0,0x2]
 1ba:	0000      	beq 1ba <___call_exitprocs+0xfa>
 1bc:	0804      	ldrb r0,[r2]
 1be:	0000      	beq 1be <___call_exitprocs+0xfe>
 1c0:	0e00      	beq 1dc <___call_exitprocs+0x11c>
 1c2:	8440      	blteu ca <___call_exitprocs+0xa>
 1c4:	8502      	movts status,r4
 1c6:	0401      	ldrb r0,[r1,r0]
 1c8:	0008 0000 	beq 1c8 <___call_exitprocs+0x108>
 1cc:	088a      	eor r0,r2,r1
 1ce:	078b 0804 	*unknown*
 1d2:	0000      	beq 1d2 <___call_exitprocs+0x112>
 1d4:	a200      	beq 118 <___call_exitprocs+0x58>
 1d6:	a30e      	asr r5,r0,0x18
 1d8:	040d 0010 	ldrb r0,[r1],-r0
 1dc:	0000      	beq 1dc <___call_exitprocs+0x11c>
 1de:	0ca0      	bbeq 1f6 <___call_exitprocs+0x136>
 1e0:	0ba1      	ldrh r0,[r2,r7]
 1e2:	0486      	lsr r0,r1,0x4
 1e4:	0387      	fadd r0,r0,r7
 1e6:	0688 0589 	blt b13f2 <__stack_start_+0xa9402>
 1ea:	1a04      	ldrb r0,[r6,0x4]
 1ec:	0000      	beq 1ec <___call_exitprocs+0x12c>
 1ee:	8e00      	beq 10a <___call_exitprocs+0x4a>
 1f0:	8f0a      	eor r4,r3,r6
 1f2:	0009 	ldrb r0,[r0,+r0]
 1f4:	3351 

Disassembly of section .debug_str:

00000000 <.debug_str>:
   0:	6873 6669 	*unknown*
   4:	0074      	strd r0,[r0]
   6:	6973 657a 	*unknown*
   a:	745f 6400 	*unknown*
   e:	616d 645f 	*unknown*
  12:	7461      	ldrd r3,[r5,r0]
  14:	5f61      	ldrd r2,[r7,r6]
  16:	6973 657a 	*unknown*
  1a:	4500      	beq a4 <_exit+0x24>
  1c:	445f 414d 	*unknown*
  20:	4d5f 5341 	*unknown*
  24:	4554      	str r2,[r1,0x2]
  26:	0052      	movltu r0,r0
  28:	645f 616d 	*unknown*
  2c:	635f 706f 	*unknown*
  30:	5f79 6564 	*unknown*
  34:	6373 6972 	*unknown*
  38:	7470      	bgte 120 <___call_exitprocs+0x60>
  3a:	726f 005f 	*unknown*
  3e:	5f45      	ldr r2,[r7],r6
  40:	4d44      	ldr r2,[r3,0x2]
  42:	5f41      	ldr r2,[r7,r6]
  44:	4f57      	float r2,r3
  46:	4452      	movltu r2,r1
  48:	4500      	beq d2 <___call_exitprocs+0x12>
  4a:	445f 414d 	*unknown*
  4e:	455f 414e 	*unknown*
  52:	4c42      	movlteu r2,r3
  54:	0045      	ldr r0,[r0],r0
  56:	5f45      	ldr r2,[r7],r6
  58:	4d44      	ldr r2,[r3,0x2]
  5a:	5f41      	ldr r2,[r7,r6]
  5c:	5942 4554 	*unknown*
  60:	7300      	beq 146 <___call_exitprocs+0x86>
  62:	6372 652f 	*unknown*
  66:	645f 616d 	*unknown*
  6a:	635f 706f 	*unknown*
  6e:	2e79 0063 	*unknown*
  72:	7273 5f63 	*unknown*
  76:	6461      	ldrd r3,[r1,r0]
  78:	7264      	ldrd r3,[r4,0x4]
  7a:	6500      	beq 144 <___call_exitprocs+0x84>
  7c:	645f 616d 	*unknown*
  80:	635f 706f 	*unknown*
  84:	0079 6572 	*unknown*
  88:	5f74      	strd r2,[r7,0x6]
  8a:	6176      	lsl r3,r0,0xb
  8c:	006c 5f45 	ldrd r16,[r56],-0x228
  90:	4d44      	ldr r2,[r3,0x2]
  92:	5f41      	ldr r2,[r7,r6]
  94:	0030      	bgteu 94 <_exit+0x14>
  96:	5f45      	ldr r2,[r7],r6
  98:	4d44      	ldr r2,[r3,0x2]
  9a:	5f41      	ldr r2,[r7,r6]
  9c:	0031      	strh r0,[r0,r0]
  9e:	6e69 656e 	*unknown*
  a2:	5f72 7473 	*unknown*
  a6:	6972 6564 	*unknown*
  aa:	4500      	beq 134 <___call_exitprocs+0x74>
  ac:	445f 414d 	*unknown*
  b0:	535f 4948 	*unknown*
  b4:	5446      	lsr r2,r5,0x2
  b6:	535f 4352 	*unknown*
  ba:	4f5f 5455 	*unknown*
  be:	4500      	beq 148 <___call_exitprocs+0x88>
  c0:	445f 414d 	*unknown*
  c4:	535f 4948 	*unknown*
  c8:	5446      	lsr r2,r5,0x2
  ca:	535f 4352 	*unknown*
  ce:	495f 004e 	*unknown*
  d2:	7364      	ldrd r3,[r4,0x6]
  d4:	5f74      	strd r2,[r7,0x6]
  d6:	6461      	ldrd r3,[r1,r0]
  d8:	7264      	ldrd r3,[r4,0x4]
  da:	4500      	beq 164 <___call_exitprocs+0xa4>
  dc:	445f 414d 	*unknown*
  e0:	4d5f 4753 	*unknown*
  e4:	4f4d 4544 	*unknown*
  e8:	4500      	beq 172 <___call_exitprocs+0xb2>
  ea:	445f 414d 	*unknown*
  ee:	535f 4948 	*unknown*
  f2:	5446      	lsr r2,r5,0x2
  f4:	445f 5453 	*unknown*
  f8:	495f 004e 	*unknown*
  fc:	682f 6d6f 	*unknown*
 100:	2f65      	ldrd r1,[r3],r6
 102:	7365      	ldrd r3,[r4],r6
 104:	6d69 652f 	*unknown*
 108:	6473 2d6b 	*unknown*
 10c:	7573 6d62 	*unknown*
 110:	646f 6c75 	*unknown*
 114:	2f65      	ldrd r1,[r3],r6
 116:	6473 2f6b 	*unknown*
 11a:	7065      	ldrd r3,[r4],r0
 11c:	7069 6168 	*unknown*
 120:	796e      	asr r3,r6,0xb
 122:	6c2d 6269 	*unknown*
 126:	2f73 7273 	*unknown*
 12a:	2f63      	mov r1,0x7b
 12c:	2d65      	ldrd r1,[r3],r2
 12e:	696c 0062 	ldrd r3,[r2,+0x312]
 132:	6863      	mov r3,0x43
 134:	6e61      	ldrd r3,[r3,r4]
 136:	4500      	beq 1c0 <___call_exitprocs+0x100>
 138:	445f 414d 	*unknown*
 13c:	485f 4f57 	*unknown*
 140:	4452      	movltu r2,r1
 142:	7300      	beq 228 <_impure_data+0x28>
 144:	7a69 7465 	*unknown*
 148:	7079 0065 	*unknown*
 14c:	5f45      	ldr r2,[r7],r6
 14e:	4d44      	ldr r2,[r3,0x2]
 150:	5f41      	ldr r2,[r7,r6]
 152:	5744      	ldr r2,[r5,0x6]
 154:	524f 0044 	*unknown*
 158:	5f65      	ldrd r2,[r7],r6
 15a:	6d64      	ldrd r3,[r3,0x2]
 15c:	5f61      	ldrd r2,[r7,r6]
 15e:	6469 745f 	*unknown*
 162:	4500      	beq 1ec <___call_exitprocs+0x12c>
 164:	445f 414d 	*unknown*
 168:	435f 4148 	*unknown*
 16c:	4e49 4500 	ldr r18,[fp,+r20]
 170:	445f 414d 	*unknown*
 174:	495f 5152 	*unknown*
 178:	4e45      	ldr r2,[r3],r4
 17a:	4700      	beq 208 <_impure_data+0x8>
 17c:	554e      	asr r2,r5,0xa
 17e:	4320      	bgtu 204 <_impure_data+0x4>
 180:	3420      	bgtu 1e8 <___call_exitprocs+0x128>
 182:	382e      	asr r1,r6,0x1
 184:	322e      	asr r1,r4,0x11
 186:	3220      	bgtu 1ea <___call_exitprocs+0x12a>
 188:	3130      	bgteu 1ea <___call_exitprocs+0x12a>
 18a:	3033      	sub r1,r4,0
 18c:	3237      	fmadd r1,r4,r4
 18e:	2039 7028 	*unknown*
 192:	6572 6572 	*unknown*
 196:	656c 7361 	ldrd r27,[r33],-0x30a
 19a:	2965      	ldrd r1,[r2],r2
 19c:	2d20      	bgtu 1f6 <___call_exitprocs+0x136>
 19e:	6c6d 6e6f 	*unknown*
 1a2:	2d67      	fix r1,r3
 1a4:	6163      	mov r3,0xb
 1a6:	6c6c 2073 	ldrd fp,[r3,+0x398]
 1aa:	6d2d 7066 	*unknown*
 1ae:	6d2d 646f 	*unknown*
 1b2:	3d65      	ldrd r1,[r7],r2
 1b4:	6f72 6e75 	*unknown*
 1b8:	2d64      	ldrd r1,[r3,0x2]
 1ba:	656e      	asr r3,r1,0xb
 1bc:	7261      	ldrd r3,[r4,r4]
 1be:	7365      	ldrd r3,[r4],r6
 1c0:	2074      	strd r1,[r0]
 1c2:	672d 2d20 	*unknown*
 1c6:	304f 2d20 	*unknown*
 1ca:	6166      	lsr r3,r0,0xb
 1cc:	696c 6e67 	ldrd r27,[r26],+0x33a
 1d0:	6c2d 6f6f 	*unknown*
 1d4:	7370      	bgte 2ba <_impure_data+0xba>
 1d6:	383d 2d20 	*unknown*
 1da:	6d66      	lsr r3,r3,0xb
 1dc:	7365      	ldrd r3,[r4],r6
 1de:	6173 6567 	*unknown*
 1e2:	6c2d 6e65 	*unknown*
 1e6:	7467      	fix r3,r5
 1e8:	3d68 2030 	bgt 406262 <__PROG_SIZE_FOR_CORE_+0x306262>
 1ec:	662d 7066 	*unknown*
 1f0:	632d 6e6f 	*unknown*
 1f4:	7274      	strd r3,[r4,0x4]
 1f6:	6361      	ldrd r3,[r0,r6]
 1f8:	3d74      	strd r1,[r7,0x2]
 1fa:	6166      	lsr r3,r0,0xb
 1fc:	7473 4500 	*unknown*
 200:	445f 414d 	*unknown*
 204:	535f 4154 	*unknown*
 208:	5452      	movltu r2,r5
 20a:	5055      	str r2,[r4],r0
 20c:	6900      	beq 2de <_impure_data+0xde>
 20e:	646e      	asr r3,r1,0x3
 210:	7865      	ldrd r3,[r6],r0
 212:	6500      	beq 2dc <_impure_data+0xdc>
 214:	645f 616d 	*unknown*
 218:	645f 7365 	*unknown*
 21c:	5f63      	mov r2,0xfb
 21e:	0074      	strd r0,[r0]
 220:	756f 6574 	*unknown*
 224:	5f72 7473 	*unknown*
 228:	6972 6564 	*unknown*
 22c:	4500      	beq 2b6 <_impure_data+0xb6>
 22e:	445f 414d 	*unknown*
 232:	535f 4948 	*unknown*
 236:	5446      	lsr r2,r5,0x2
 238:	445f 5453 	*unknown*
 23c:	4f5f 5455 	*unknown*
 240:	4500      	beq 2ca <_impure_data+0xca>
 242:	525f 4745 	*unknown*
 246:	4c5f 0043 	*unknown*
 24a:	5f45      	ldr r2,[r7],r6
 24c:	4552 5f47 	*unknown*
 250:	454c 4500 	ldr r18,[r9,-0x2]
 254:	455f 5252 	*unknown*
 258:	4500      	beq 2e2 <_impure_data+0xe2>
 25a:	525f 4745 	*unknown*
 25e:	4c5f 0053 	*unknown*
 262:	5f45      	ldr r2,[r7],r6
 264:	4552 5f47 	*unknown*
 268:	4350      	bltu 2ee <_impure_data+0xee>
 26a:	4500      	beq 2f4 <_impure_data+0xf4>
 26c:	525f 4745 	*unknown*
 270:	495f 4550 	*unknown*
 274:	444e      	asr r2,r1,0x2
 276:	4500      	beq 300 <_impure_data+0x100>
 278:	525f 4745 	*unknown*
 27c:	495f 414c 	*unknown*
 280:	0054      	str r0,[r0]
 282:	5f45      	ldr r2,[r7],r6
 284:	4552 5f47 	*unknown*
 288:	4d49 5341 	*unknown*
 28c:	004b 5f45 	*unknown*
 290:	4552 5f47 	*unknown*
 294:	4544      	ldr r2,[r1,0x2]
 296:	5542 4347 	*unknown*
 29a:	444d 7300 	ldr r26,[r33],+r48
 29e:	6372 652f 	*unknown*
 2a2:	645f 616d 	*unknown*
 2a6:	735f 6174 	*unknown*
 2aa:	7472      	movgte r3,r5
 2ac:	632e      	asr r3,r0,0x19
 2ae:	4500      	beq 338 <_impure_data+0x138>
 2b0:	525f 4745 	*unknown*
 2b4:	435f 524f 	*unknown*
 2b8:	4945      	ldr r2,[r2],r2
 2ba:	0044      	ldr r0,[r0]
 2bc:	5f65      	ldrd r2,[r7],r6
 2be:	6572 7574 	*unknown*
 2c2:	6e72 735f 	*unknown*
 2c6:	6174      	strd r3,[r0,0x2]
 2c8:	5f74      	strd r2,[r7,0x6]
 2ca:	0074      	strd r0,[r0]
 2cc:	5f45      	ldr r2,[r7],r6
 2ce:	4552 5f47 	*unknown*
 2d2:	4d44      	ldr r2,[r3,0x2]
 2d4:	3041      	ldr r1,[r4,r0]
 2d6:	4f43      	mov r2,0x7a
 2d8:	4e55      	str r2,[r3],r4
 2da:	0054      	str r0,[r0]
 2dc:	5f45      	ldr r2,[r7],r6
 2de:	4552 5f47 	*unknown*
 2e2:	4d44      	ldr r2,[r3,0x2]
 2e4:	3141      	ldr r1,[r4,r2]
 2e6:	5253 4143 	*unknown*
 2ea:	4444      	ldr r2,[r1]
 2ec:	0052      	movltu r0,r0
 2ee:	5f45      	ldr r2,[r7],r6
 2f0:	4552 5f47 	*unknown*
 2f4:	4f43      	mov r2,0x7a
 2f6:	4552 525f 	*unknown*
 2fa:	5345      	ldr r2,[r4],r6
 2fc:	5445      	ldr r2,[r5],r0
 2fe:	4500      	beq 388 <_impure_data+0x188>
 300:	525f 4745 	*unknown*
 304:	4d5f 5345 	*unknown*
 308:	4348 4746 	blteu 8e8f8e <__PROG_SIZE_FOR_CORE_+0x7e8f8e>
 30c:	4500      	beq 396 <_impure_data+0x196>
 30e:	525f 4745 	*unknown*
 312:	495f 414c 	*unknown*
 316:	4354      	str r2,[r0,0x6]
 318:	004c 5f45 	ldr r16,[r56],-0x228
 31c:	4552 5f47 	*unknown*
 320:	4d44      	ldr r2,[r3,0x2]
 322:	3141      	ldr r1,[r4,r2]
 324:	5453 5441 	*unknown*
 328:	5355      	str r2,[r4],r6
 32a:	4500      	beq 3b4 <_impure_data+0x1b4>
 32c:	525f 4745 	*unknown*
 330:	445f 414d 	*unknown*
 334:	4330      	bgteu 3ba <_impure_data+0x1ba>
 336:	4e4f 4946 	*unknown*
 33a:	0047      	fmsub r0,r0,r0
 33c:	5f45      	ldr r2,[r7],r6
 33e:	4552 5f47 	*unknown*
 342:	5453 5441 	*unknown*
 346:	5355      	str r2,[r4],r6
 348:	4500      	beq 3d2 <_impure_data+0x1d2>
 34a:	575f 5241 	*unknown*
 34e:	004e      	asr r0,r0,0x2
 350:	5f45      	ldr r2,[r7],r6
 352:	4552 5f47 	*unknown*
 356:	4d44      	ldr r2,[r3,0x2]
 358:	3041      	ldr r1,[r4,r0]
 35a:	5253 4143 	*unknown*
 35e:	4444      	ldr r2,[r1]
 360:	0052      	movltu r0,r0
 362:	5f45      	ldr r2,[r7],r6
 364:	4552 5f47 	*unknown*
 368:	4d44      	ldr r2,[r3,0x2]
 36a:	3141      	ldr r1,[r4,r2]
 36c:	5453 4952 	*unknown*
 370:	4544      	ldr r2,[r1,0x2]
 372:	4500      	beq 3fc <_impure_data+0x1fc>
 374:	525f 4745 	*unknown*
 378:	495f 4552 	*unknown*
 37c:	0054      	str r0,[r0]
 37e:	5f45      	ldr r2,[r7],r6
 380:	4552 5f47 	*unknown*
 384:	4d44      	ldr r2,[r3,0x2]
 386:	3141      	ldr r1,[r4,r2]
 388:	5344      	ldr r2,[r4,0x6]
 38a:	4154      	str r2,[r0,0x2]
 38c:	4444      	ldr r2,[r1]
 38e:	0052      	movltu r0,r0
 390:	5f45      	ldr r2,[r7],r6
 392:	4552 5f47 	*unknown*
 396:	4544      	ldr r2,[r1,0x2]
 398:	5542 5347 	*unknown*
 39c:	4154      	str r2,[r0,0x2]
 39e:	5554      	str r2,[r5,0x2]
 3a0:	0053 5f45 	*unknown*
 3a4:	4552 5f47 	*unknown*
 3a8:	4d44      	ldr r2,[r3,0x2]
 3aa:	3041      	ldr r1,[r4,r0]
 3ac:	5541      	ldr r2,[r5,r2]
 3ae:	4f54      	str r2,[r3,0x6]
 3b0:	4d44      	ldr r2,[r3,0x2]
 3b2:	3041      	ldr r1,[r4,r0]
 3b4:	4500      	beq 43e <_impure_data+0x23e>
 3b6:	525f 4745 	*unknown*
 3ba:	445f 414d 	*unknown*
 3be:	4130      	bgteu 440 <_impure_data+0x240>
 3c0:	5455      	str r2,[r5],r0
 3c2:	444f 414d 	*unknown*
 3c6:	0031      	strh r0,[r0,r0]
 3c8:	5f45      	ldr r2,[r7],r6
 3ca:	4552 5f47 	*unknown*
 3ce:	4c49 5441 	*unknown*
 3d2:	5453 4500 	*unknown*
 3d6:	525f 4745 	*unknown*
 3da:	445f 414d 	*unknown*
 3de:	4131      	strh r2,[r0,r2]
 3e0:	5455      	str r2,[r5],r0
 3e2:	444f 414d 	*unknown*
 3e6:	0030      	bgteu 3e6 <_impure_data+0x1e6>
 3e8:	5f45      	ldr r2,[r7],r6
 3ea:	4552 5f47 	*unknown*
 3ee:	4d44      	ldr r2,[r3,0x2]
 3f0:	3141      	ldr r1,[r4,r2]
 3f2:	5541      	ldr r2,[r5,r2]
 3f4:	4f54      	str r2,[r3,0x6]
 3f6:	4d44      	ldr r2,[r3,0x2]
 3f8:	3141      	ldr r1,[r4,r2]
 3fa:	4500      	beq 484 <_impure_data+0x284>
 3fc:	525f 4745 	*unknown*
 400:	4d5f 4d45 	*unknown*
 404:	5250      	bltu 4a8 <_impure_data+0x2a8>
 406:	544f 4345 	*unknown*
 40a:	0054      	str r0,[r0]
 40c:	5f45      	ldr r2,[r7],r6
 40e:	4552 5f47 	*unknown*
 412:	4d44      	ldr r2,[r3,0x2]
 414:	3141      	ldr r1,[r4,r2]
 416:	4f43      	mov r2,0x7a
 418:	4e55      	str r2,[r3],r4
 41a:	0054      	str r0,[r0]
 41c:	5f45      	ldr r2,[r7],r6
 41e:	4552 5f47 	*unknown*
 422:	5443      	mov r2,0xa2
 424:	4d49 5245 	*unknown*
 428:	0030      	bgteu 428 <_impure_data+0x228>
 42a:	5f45      	ldr r2,[r7],r6
 42c:	4552 5f47 	*unknown*
 430:	5443      	mov r2,0xa2
 432:	4d49 5245 	*unknown*
 436:	0031      	strh r0,[r0,r0]
 438:	5f65      	ldrd r2,[r7],r6
 43a:	6d64      	ldrd r3,[r3,0x2]
 43c:	5f61      	ldrd r2,[r7,r6]
 43e:	7473 7261 	*unknown*
 442:	0074      	strd r0,[r0]
 444:	5f45      	ldr r2,[r7],r6
 446:	4552 5f47 	*unknown*
 44a:	454d 534d 	*unknown*
 44e:	4154      	str r2,[r0,0x2]
 450:	5554      	str r2,[r5,0x2]
 452:	0053 5f45 	*unknown*
 456:	4552 5f47 	*unknown*
 45a:	4d44      	ldr r2,[r3,0x2]
 45c:	3041      	ldr r1,[r4,r0]
 45e:	5453 5441 	*unknown*
 462:	5355      	str r2,[r4],r6
 464:	4500      	beq 4ee <_impure_data+0x2ee>
 466:	525f 4745 	*unknown*
 46a:	465f 5453 	*unknown*
 46e:	5441      	ldr r2,[r5,r0]
 470:	5355      	str r2,[r4],r6
 472:	4500      	beq 4fc <_impure_data+0x2fc>
 474:	525f 4745 	*unknown*
 478:	445f 414d 	*unknown*
 47c:	5330      	bgteu 522 <_impure_data+0x322>
 47e:	5254      	str r2,[r4,0x4]
 480:	4449 0045 	*unknown*
 484:	5f45      	ldr r2,[r7],r6
 486:	4552 5f47 	*unknown*
 48a:	4d44      	ldr r2,[r3,0x2]
 48c:	3041      	ldr r1,[r4,r0]
 48e:	5344      	ldr r2,[r4,0x6]
 490:	4154      	str r2,[r0,0x2]
 492:	4444      	ldr r2,[r1]
 494:	0052      	movltu r0,r0
 496:	5f45      	ldr r2,[r7],r6
 498:	4552 5f47 	*unknown*
 49c:	4d44      	ldr r2,[r3,0x2]
 49e:	3141      	ldr r1,[r4,r2]
 4a0:	4f43      	mov r2,0x7a
 4a2:	464e      	asr r2,r1,0x12
 4a4:	4749 4500 	ldr r18,[r9,+r22]
 4a8:	435f 524f 	*unknown*
 4ac:	5f45      	ldr r2,[r7],r6
 4ae:	5053 525f 	*unknown*
 4b2:	4745      	ldr r2,[r1],r6
 4b4:	425f 5341 	*unknown*
 4b8:	0045      	ldr r0,[r0],r0
 4ba:	5f45      	ldr r2,[r7],r6
 4bc:	4b4f 4500 	*unknown*
 4c0:	525f 4745 	*unknown*
 4c4:	435f 4e4f 	*unknown*
 4c8:	4946      	lsr r2,r2,0xa
 4ca:	0047      	fmsub r0,r0,r0
 4cc:	6564      	ldrd r3,[r1,0x2]
 4ce:	6373 6972 	*unknown*
 4d2:	7470      	bgte 5ba <_impure_data+0x3ba>
 4d4:	726f 4500 	*unknown*
 4d8:	4d5f 5041 	*unknown*
 4dc:	4950      	bltu 56e <_impure_data+0x36e>
 4de:	474e      	asr r2,r1,0x1a
 4e0:	6300      	beq 5a6 <_impure_data+0x3a6>
 4e2:	6968 7470 	bgt e8e5b4 <__PROG_SIZE_FOR_CORE_+0xd8e5b4>
 4e6:	7079 0065 	*unknown*
 4ea:	5f65      	ldrd r2,[r7],r6
 4ec:	6f63      	mov r3,0x7b
 4ee:	6572 6469 	*unknown*
 4f2:	745f 6f00 	*unknown*
 4f6:	6a62 7974 	*unknown*
 4fa:	6570      	bgte 5c4 <_impure_data+0x3c4>
 4fc:	4500      	beq 586 <_impure_data+0x386>
 4fe:	455f 4950 	*unknown*
 502:	435f 4948 	*unknown*
 506:	0050      	bltu 506 <_impure_data+0x306>
 508:	5f45      	ldr r2,[r7],r6
 50a:	554e      	asr r2,r5,0xa
 50c:	4c4c 6700 	ldr r26,[fp],-0x0
 510:	6f72 7075 	*unknown*
 514:	695f 0064 	*unknown*
 518:	5f45      	ldr r2,[r7],r6
 51a:	5045      	ldr r2,[r4],r0
 51c:	5f49 4c50 	*unknown*
 520:	5441      	ldr r2,[r5,r0]
 522:	4f46      	lsr r2,r3,0x1a
 524:	4d52 6700 	*unknown*
 528:	6f72 7075 	*unknown*
 52c:	635f 6c6f 	*unknown*
 530:	4500      	beq 5ba <_impure_data+0x3ba>
 532:	455f 3436 	*unknown*
 536:	3447      	fmsub r1,r5,r0
 538:	3130      	bgteu 59a <_impure_data+0x39a>
 53a:	6500      	beq 604 <_impure_data+0x404>
 53c:	675f 6f72 	*unknown*
 540:	7075      	strd r3,[r4],r0
 542:	635f 6e6f 	*unknown*
 546:	6966      	lsr r3,r2,0xb
 548:	0067      	fix r0,r0
 54a:	6f63      	mov r3,0x7b
 54c:	6572 725f 	*unknown*
 550:	776f 6500 	*unknown*
 554:	6f5f 6a62 	*unknown*
 558:	7974      	strd r3,[r6,0x2]
 55a:	6570      	bgte 624 <_impure_data+0x424>
 55c:	745f 4500 	*unknown*
 560:	535f 4148 	*unknown*
 564:	4552 5f44 	*unknown*
 568:	454d 004d 	*unknown*
 56c:	5f65      	ldrd r2,[r7],r6
 56e:	6572 5f67 	*unknown*
 572:	7277      	fabs rd,rn
 574:	7469 0065 	*unknown*
 578:	5f45      	ldr r2,[r7],r6
 57a:	5045      	ldr r2,[r4],r0
 57c:	5f49 5247 	*unknown*
 580:	554f 0050 	*unknown*
 584:	6572 5f67 	*unknown*
 588:	6469 7300 	ldrd r27,[r33,+r48]
 58c:	6372 652f 	*unknown*
 590:	725f 6765 	*unknown*
 594:	775f 6972 	*unknown*
 598:	6574      	strd r3,[r1,0x2]
 59a:	632e      	asr r3,r0,0x19
 59c:	4500      	beq 626 <_impure_data+0x426>
 59e:	455f 4950 	*unknown*
 5a2:	435f 524f 	*unknown*
 5a6:	0045      	ldr r0,[r0],r0
 5a8:	5f65      	ldrd r2,[r7],r6
 5aa:	6863      	mov r3,0x43
 5ac:	7069 7974 	*unknown*
 5b0:	6570      	bgte 67a <init+0x2c>
 5b2:	745f 6700 	*unknown*
 5b6:	6f72 7075 	*unknown*
 5ba:	725f 776f 	*unknown*
 5be:	7200      	beq 6a2 <_epiphany_start+0x22>
 5c0:	6765      	ldrd r3,[r1],r6
 5c2:	765f 6c61 	*unknown*
 5c6:	6300      	beq 68c <_epiphany_start+0xc>
 5c8:	726f 5f65 	*unknown*
 5cc:	6f63      	mov r3,0x7b
 5ce:	006c 5f45 	ldrd r16,[r56],-0x228
 5d2:	3145      	ldr r1,[r4],r2
 5d4:	4736      	lsl r2,r1,0x19
 5d6:	3033      	sub r1,r4,0
 5d8:	0031      	strh r0,[r0,r0]
 5da:	7267      	fix r3,r4
 5dc:	756f 5f70 	*unknown*
 5e0:	6f72 7377 	*unknown*
 5e4:	6100      	beq 6a6 <_epiphany_start+0x26>
 5e6:	696c 6e67 	ldrd r27,[r26],+0x33a
 5ea:	656d 746e 	*unknown*
 5ee:	705f 6461 	*unknown*
 5f2:	6964      	ldrd r3,[r2,0x2]
 5f4:	676e      	asr r3,r1,0x1b
 5f6:	6500      	beq 6c0 <_epiphany_start+0x40>
 5f8:	635f 726f 	*unknown*
 5fc:	5f65      	ldrd r2,[r7],r6
 5fe:	6572 5f67 	*unknown*
 602:	6469 745f 	*unknown*
 606:	6500      	beq 6d0 <_epiphany_start+0x50>
 608:	675f 6f72 	*unknown*
 60c:	7075      	strd r3,[r4],r0
 60e:	635f 6e6f 	*unknown*
 612:	6966      	lsr r3,r2,0xb
 614:	5f67      	fix r2,r7
 616:	0074      	strd r0,[r0]
 618:	7267      	fix r3,r4
 61a:	756f 5f70 	*unknown*
 61e:	6f63      	mov r3,0x7b
 620:	736c 4500 	ldrd r19,[r12,-0x6]
 624:	455f 5458 	*unknown*
 628:	4d5f 4d45 	*unknown*
 62c:	6500      	beq 6f6 <RDS+0xe>
 62e:	655f 656d 	*unknown*
 632:	5f6d 6f63 	*unknown*
 636:	666e      	asr r3,r1,0x13
 638:	6769 7300 	ldrd r27,[r33,+r54]
 63c:	6372 652f 	*unknown*
 640:	635f 726f 	*unknown*
 644:	6965      	ldrd r3,[r2],r2
 646:	5f64      	ldrd r2,[r7,0x6]
 648:	6f63      	mov r3,0x7b
 64a:	666e      	asr r3,r1,0x13
 64c:	6769 632e 	*unknown*
 650:	6500      	beq 71a <_deregister_tm_clones+0xa>
 652:	655f 656d 	*unknown*
 656:	5f6d 6f63 	*unknown*
 65a:	666e      	asr r3,r1,0x13
 65c:	6769 745f 	*unknown*
 660:	7500      	beq 74a <_register_tm_clones+0xe>
 662:	7470      	bgte 74a <_register_tm_clones+0xe>
 664:	0072      	movgte r0,r0
 666:	7273 2f63 	*unknown*
 66a:	5f65      	ldrd r2,[r7],r6
 66c:	6f63      	mov r3,0x7b
 66e:	6572 6469 	*unknown*
 672:	675f 7465 	*unknown*
 676:	675f 6f6c 	*unknown*
 67a:	6162 5f6c 	*unknown*
 67e:	6461      	ldrd r3,[r1,r0]
 680:	7264      	ldrd r3,[r4,0x4]
 682:	7365      	ldrd r3,[r4],r6
 684:	2e73 0063 	*unknown*
 688:	5f65      	ldrd r2,[r7],r6
 68a:	6567      	fix r3,r1
 68c:	5f74      	strd r2,[r7,0x6]
 68e:	6c67      	fix r3,r3
 690:	626f 6c61 	*unknown*
 694:	615f 6464 	*unknown*
 698:	6572 7373 	*unknown*
 69c:	7300      	beq 782 <___do_global_dtors_aux+0x16>
 69e:	6372 652f 	*unknown*
 6a2:	645f 616d 	*unknown*
 6a6:	625f 7375 	*unknown*
 6aa:	2e79 0063 	*unknown*
 6ae:	5f65      	ldrd r2,[r7],r6
 6b0:	6d64      	ldrd r3,[r3,0x2]
 6b2:	5f61      	ldrd r2,[r7,r6]
 6b4:	7562 7973 	*unknown*
 6b8:	7300      	beq 79e <___do_global_dtors_aux+0x32>
 6ba:	6372 652f 	*unknown*
 6be:	725f 6765 	*unknown*
 6c2:	725f 6165 	*unknown*
 6c6:	2e64      	ldrd r1,[r3,0x4]
 6c8:	0063      	mov r0,0x3
 6ca:	5f65      	ldrd r2,[r7],r6
 6cc:	6572 5f67 	*unknown*
 6d0:	6572 6461 	*unknown*
 6d4:	6300      	beq 79a <___do_global_dtors_aux+0x2e>
 6d6:	726f 6965 	*unknown*
 6da:	5f64      	ldrd r2,[r7,0x6]
 6dc:	6e69 725f 	*unknown*
 6e0:	6765      	ldrd r3,[r1],r6
 6e2:	6500      	beq 7ac <___do_global_dtors_aux+0x40>
 6e4:	675f 7465 	*unknown*
 6e8:	635f 726f 	*unknown*
 6ec:	6965      	ldrd r3,[r2],r2
 6ee:	0064      	ldrd r0,[r0]
 6f0:	7273 2f63 	*unknown*
 6f4:	5f65      	ldrd r2,[r7],r6
 6f6:	6f63      	mov r3,0x7b
 6f8:	6572 6469 	*unknown*
 6fc:	675f 7465 	*unknown*
 700:	635f 726f 	*unknown*
 704:	6965      	ldrd r3,[r2],r2
 706:	2e64      	ldrd r1,[r3,0x4]
 708:	0063      	mov r0,0x3
 70a:	645f 6f73 	*unknown*
 70e:	685f 6e61 	*unknown*
 712:	6c64      	ldrd r3,[r3]
 714:	0065      	ldrd r0,[r0],r0
 716:	725f 6e61 	*unknown*
 71a:	3464      	ldrd r1,[r5]
 71c:	0038 655f 	bgteu cac51c <__PROG_SIZE_FOR_CORE_+0xbac51c>
 720:	656d 6772 	*unknown*
 724:	6e65      	ldrd r3,[r3],r4
 726:	7963      	mov r3,0xcb
 728:	5f00      	beq 7e6 <_frame_dummy+0x2>
 72a:	6377      	fabs rd,rn
 72c:	7472      	movgte r3,r5
 72e:	6d6f 5f62 	*unknown*
 732:	7473 7461 	*unknown*
 736:	0065      	ldrd r0,[r0],r0
 738:	775f 7363 	*unknown*
 73c:	7472      	movgte r3,r5
 73e:	6d6f 7362 	*unknown*
 742:	735f 6174 	*unknown*
 746:	6574      	strd r3,[r1,0x2]
 748:	6c00      	beq 820 <_main>
 74a:	6e6f 2067 	*unknown*
 74e:	6f6c 676e 	ldrd r27,[fp],-0x376
 752:	7520      	bgtu 83c <_main+0x1c>
 754:	736e      	asr r3,r4,0x1b
 756:	6769 656e 	*unknown*
 75a:	2064      	ldrd r1,[r0]
 75c:	6e69 0074 	*unknown*
 760:	6c5f 6662 	*unknown*
 764:	6973 657a 	*unknown*
 768:	5f00      	beq 826 <_main+0x6>
 76a:	626d 7472 	*unknown*
 76e:	776f 5f63 	*unknown*
 772:	7473 7461 	*unknown*
 776:	0065      	ldrd r0,[r0],r0
 778:	775f 7463 	*unknown*
 77c:	6d6f 5f62 	*unknown*
 780:	7473 7461 	*unknown*
 784:	0065      	ldrd r0,[r0],r0
 786:	5f5f 6d74 	*unknown*
 78a:	735f 6365 	*unknown*
 78e:	6c00      	beq 866 <_main+0x46>
 790:	6e6f 2067 	*unknown*
 794:	6f6c 676e 	ldrd r27,[fp],-0x376
 798:	6920      	bgtu 86a <_main+0x4a>
 79a:	746e      	asr r3,r5,0x3
 79c:	5f00      	beq 85a <_main+0x3a>
 79e:	6275      	strd r3,[r0],r4
 7a0:	6675      	strd r3,[r1],r4
 7a2:	5f00      	beq 860 <_main+0x40>
 7a4:	6162 6573 	*unknown*
 7a8:	5f00      	beq 866 <_main+0x46>
 7aa:	745f 5f6d 	*unknown*
 7ae:	6f68 7275 	bgt e4f28c <__PROG_SIZE_FOR_CORE_+0xd4f28c>
 7b2:	5f00      	beq 870 <_e_dma_copy>
 7b4:	735f 0066 	*unknown*
 7b8:	6f5f 5f6e 	*unknown*
 7bc:	7865      	ldrd r3,[r6],r0
 7be:	7469 615f 	*unknown*
 7c2:	6772 0073 	*unknown*
 7c6:	635f 6f6f 	*unknown*
 7ca:	696b 0065 	*unknown*
 7ce:	5f5f 6773 	*unknown*
 7d2:	756c 0065 	ldrd r3,[r5,+0x32a]
 7d6:	665f 616c 	*unknown*
 7da:	7367      	fix r3,r4
 7dc:	5f00      	beq 89a <_e_dma_copy+0x2a>
 7de:	7369 635f 	*unknown*
 7e2:	6178 5f00 	bgte be08a4 <__PROG_SIZE_FOR_CORE_+0xae08a4>
 7e6:	7473 6964 	*unknown*
 7ea:	006e      	asr r0,r0,0x3
 7ec:	6f63      	mov r3,0x7b
 7ee:	6564      	ldrd r3,[r1,0x2]
 7f0:	5f00      	beq 8ae <_e_dma_copy+0x3e>
 7f2:	6c62      	movgt r3,r3
 7f4:	736b 7a69 	*unknown*
 7f8:	0065      	ldrd r0,[r0],r0
 7fa:	635f 7476 	*unknown*
 7fe:	7562 0066 	*unknown*
 802:	6f5f 6666 	*unknown*
 806:	6573 0074 	*unknown*
 80a:	6d5f 7362 	*unknown*
 80e:	7472      	movgte r3,r5
 810:	776f 7363 	*unknown*
 814:	735f 6174 	*unknown*
 818:	6574      	strd r3,[r1,0x2]
 81a:	5f00      	beq 8d8 <_e_dma_copy+0x68>
 81c:	626d 6c72 	*unknown*
 820:	6e65      	ldrd r3,[r3],r4
 822:	735f 6174 	*unknown*
 826:	6574      	strd r3,[r1,0x2]
 828:	5f00      	beq 8e6 <_e_dma_copy+0x76>
 82a:	6e66      	lsr r3,r3,0x13
 82c:	7261      	ldrd r3,[r4,r4]
 82e:	7367      	fix r3,r4
 830:	5f00      	beq 8ee <_e_dma_copy+0x7e>
 832:	6e66      	lsr r3,r3,0x13
 834:	0073 735f 	*unknown*
 838:	6769 006e 	*unknown*
 83c:	665f 6f6c 	*unknown*
 840:	6b63      	mov r3,0x5b
 842:	745f 5f00 	*unknown*
 846:	7473 6564 	*unknown*
 84a:	7272 5f00 	*unknown*
 84e:	6942 6967 	*unknown*
 852:	746e      	asr r3,r5,0x3
 854:	5f00      	beq 912 <_e_dma_copy+0xa2>
 856:	6572 7573 	*unknown*
 85a:	746c 6b5f 	ldrd r27,[r21],-0x2f8
 85e:	5f00      	beq 91c <_e_dma_copy+0xac>
 860:	745f 006d 	*unknown*
 864:	5f5f 6377 	*unknown*
 868:	6268 5f00 	bgt be092c <__PROG_SIZE_FOR_CORE_+0xae092c>
 86c:	7473 6f64 	*unknown*
 870:	7475      	strd r3,[r5],r0
 872:	5f00      	beq 930 <_e_dma_copy+0xc0>
 874:	7663      	mov r3,0xb3
 876:	6c74      	strd r3,[r3]
 878:	6e65      	ldrd r3,[r3],r4
 87a:	5f00      	beq 938 <_e_dma_copy+0xc8>
 87c:	6966      	lsr r3,r2,0xb
 87e:	656c 5f00 	ldrd r19,[r57],-0x2
 882:	696e      	asr r3,r2,0xb
 884:	626f 0073 	*unknown*
 888:	6873 726f 	*unknown*
 88c:	2074      	strd r1,[r0]
 88e:	6e75      	strd r3,[r3],r4
 890:	6973 6e67 	*unknown*
 894:	6465      	ldrd r3,[r1],r0
 896:	6920      	bgtu 968 <_e_dma_copy+0xf8>
 898:	746e      	asr r3,r5,0x3
 89a:	5f00      	beq 958 <_e_dma_copy+0xe8>
 89c:	7461      	ldrd r3,[r5,r0]
 89e:	7865      	ldrd r3,[r6],r0
 8a0:	7469 0030 	*unknown*
 8a4:	735f 6769 	*unknown*
 8a8:	616e      	asr r3,r0,0xb
 8aa:	5f6c 7562 	ldrd r26,[r47,-0x316]
 8ae:	0066      	lsr r0,r0,0x3
 8b0:	615f 6373 	*unknown*
 8b4:	6974      	strd r3,[r2,0x2]
 8b6:	656d 625f 	*unknown*
 8ba:	6675      	strd r3,[r1],r4
 8bc:	5f00      	beq 97a <_e_dma_copy+0x10a>
 8be:	6572 7573 	*unknown*
 8c2:	746c 5f00 	ldrd r19,[r61],-0x0
 8c6:	775f 6863 	*unknown*
 8ca:	7700      	beq 9b8 <_e_dma_start+0x8>
 8cc:	6e69 5f74 	*unknown*
 8d0:	0074      	strd r0,[r0]
 8d2:	6c5f 636f 	*unknown*
 8d6:	006b 665f 	*unknown*
 8da:	616c 7367 	ldrd r27,[r32],-0x33a
 8de:	0032      	movgteu r0,r0
 8e0:	5f5f 6d74 	*unknown*
 8e4:	795f 6165 	*unknown*
 8e8:	0072      	movgte r0,r0
 8ea:	6e5f 7865 	*unknown*
 8ee:	6674      	strd r3,[r1,0x4]
 8f0:	5f00      	beq 9ae <_e_dma_copy+0x13e>
 8f2:	745f 5f6d 	*unknown*
 8f6:	6f6d 006e 	*unknown*
 8fa:	615f 6574 	*unknown*
 8fe:	6978 0074 	bgte f1d0 <__stack_start_+0x71e0>
 902:	5f5f 6473 	*unknown*
 906:	6469 6e69 	*unknown*
 90a:	7469 5f00 	ldrd r19,[r61,+r48]
 90e:	6167      	fix r3,r0
 910:	6d6d 5f61 	*unknown*
 914:	6973 6e67 	*unknown*
 918:	6167      	fix r3,r0
 91a:	006d 665f 	*unknown*
 91e:	6572 6c65 	*unknown*
 922:	7369 0074 	*unknown*
 926:	682f 6d6f 	*unknown*
 92a:	2f65      	ldrd r1,[r3],r6
 92c:	7365      	ldrd r3,[r4],r6
 92e:	6d69 652f 	*unknown*
 932:	6473 2d6b 	*unknown*
 936:	7573 6d62 	*unknown*
 93a:	646f 6c75 	*unknown*
 93e:	2f65      	ldrd r1,[r3],r6
 940:	6e75      	strd r3,[r3],r4
 942:	7369 6372 	*unknown*
 946:	322d 3130 	*unknown*
 94a:	2e35      	strh r1,[r3],r4
 94c:	2f31      	strh r1,[r3,r6]
 94e:	656e      	asr r3,r1,0xb
 950:	6c77      	fabs rd,rn
 952:	6269 6c2f 	*unknown*
 956:	6269 2f63 	*unknown*
 95a:	7473 6c64 	*unknown*
 95e:	6269 652f 	*unknown*
 962:	6978 2e74 	bgte 5cf234 <__PROG_SIZE_FOR_CORE_+0x4cf234>
 966:	0063      	mov r0,0x3
 968:	4c5f 434f 	*unknown*
 96c:	5f4b 4552 	mov r18,0x55fa
 970:	5543      	mov r2,0xaa
 972:	5352 5649 	*unknown*
 976:	5f45      	ldr r2,[r7],r6
 978:	0054      	str r0,[r0]
 97a:	6e75      	strd r3,[r3],r4
 97c:	6973 6e67 	*unknown*
 980:	6465      	ldrd r3,[r1],r0
 982:	6320      	bgtu a48 <_e_dma_start+0x98>
 984:	6168 0072 	bgt ee46 <__stack_start_+0x6e56>
 988:	6e5f 7765 	*unknown*
 98c:	5f00      	beq a4a <_e_dma_start+0x9a>
 98e:	5f68 7265 	bgt e4d44c <__PROG_SIZE_FOR_CORE_+0xd4d44c>
 992:	6e72 006f 	*unknown*
 996:	6873 726f 	*unknown*
 99a:	2074      	strd r1,[r0]
 99c:	6e69 0074 	*unknown*
 9a0:	5f5f 6d74 	*unknown*
 9a4:	795f 6164 	*unknown*
 9a8:	0079 5f5f 	*unknown*
 9ac:	6273 6675 	*unknown*
 9b0:	5f00      	beq a6e <_e_reg_write+0x6>
 9b2:	6f69 7362 	*unknown*
 9b6:	5f00      	beq a74 <_e_reg_write+0xc>
 9b8:	465f 4c49 	*unknown*
 9bc:	0045      	ldr r0,[r0],r0
 9be:	6d5f 7362 	*unknown*
 9c2:	6174      	strd r3,[r0,0x2]
 9c4:	6574      	strd r3,[r1,0x2]
 9c6:	745f 5f00 	*unknown*
 9ca:	735f 4946 	*unknown*
 9ce:	454c 5f00 	ldr r18,[r57],-0x2
 9d2:	626d 7473 	*unknown*
 9d6:	7461      	ldrd r3,[r5,r0]
 9d8:	0065      	ldrd r0,[r0],r0
 9da:	725f 6e61 	*unknown*
 9de:	5f64      	ldrd r2,[r7,0x6]
 9e0:	656e      	asr r3,r1,0xb
 9e2:	7478 5f00 	bgte be0aca <__PROG_SIZE_FOR_CORE_+0xae0aca>
 9e6:	626d 656c 	*unknown*
 9ea:	5f6e      	asr r2,r7,0x1b
 9ec:	7473 7461 	*unknown*
 9f0:	0065      	ldrd r0,[r0],r0
 9f2:	695f 636e 	*unknown*
 9f6:	5f00      	beq ab4 <_e_reg_write+0x4c>
 9f8:	6e69 0064 	*unknown*
 9fc:	635f 7275 	*unknown*
 a00:	6572 746e 	*unknown*
 a04:	6c5f 636f 	*unknown*
 a08:	6c61      	ldrd r3,[r3,r0]
 a0a:	0065      	ldrd r0,[r0],r0
 a0c:	5f5f 6c63 	*unknown*
 a10:	6165      	ldrd r3,[r0],r2
 a12:	756e      	asr r3,r5,0xb
 a14:	0070      	bgte a14 <_e_dma_start+0x64>
 a16:	6d5f 7861 	*unknown*
 a1a:	6477      	fabs rd,rn
 a1c:	0073 725f 	*unknown*
 a20:	6565      	ldrd r3,[r1],r2
 a22:	746e      	asr r3,r5,0x3
 a24:	5f00      	beq ae2 <_e_reg_write+0x7a>
 a26:	6573 6465 	*unknown*
 a2a:	5f00      	beq ae8 <_e_reg_write+0x80>
 a2c:	635f 756f 	*unknown*
 a30:	746e      	asr r3,r5,0x3
 a32:	5f00      	beq af0 <_e_reg_write+0x88>
 a34:	765f 6c61 	*unknown*
 a38:	6575      	strd r3,[r1],r2
 a3a:	5f00      	beq af8 <_e_get_global_address>
 a3c:	6573 6b65 	*unknown*
 a40:	5f00      	beq afe <_e_get_global_address+0x6>
 a42:	7066      	lsr r3,r4,0x3
 a44:	736f 745f 	*unknown*
 a48:	5f00      	beq b06 <_e_get_global_address+0xe>
 a4a:	745f 5f6d 	*unknown*
 a4e:	696d 006e 	*unknown*
 a52:	6d5f 6c75 	*unknown*
 a56:	0074      	strd r0,[r0]
 a58:	735f 7274 	*unknown*
 a5c:	6f74      	strd r3,[r3,0x6]
 a5e:	5f6b 616c 	*unknown*
 a62:	7473 5f00 	*unknown*
 a66:	6e66      	lsr r3,r3,0x13
 a68:	7974      	strd r3,[r6,0x2]
 a6a:	6570      	bgte b34 <_e_get_global_address+0x3c>
 a6c:	0073 615f 	*unknown*
 a70:	6464      	ldrd r3,[r1]
 a72:	5f00      	beq b30 <_e_get_global_address+0x38>
 a74:	555f 6f4c 	*unknown*
 a78:	676e      	asr r3,r1,0x1b
 a7a:	5f00      	beq b38 <_e_get_global_address+0x40>
 a7c:	6567      	fix r3,r1
 a7e:	6474      	strd r3,[r1]
 a80:	7461      	ldrd r3,[r5,r0]
 a82:	5f65      	ldrd r2,[r7],r6
 a84:	7265      	ldrd r3,[r4],r4
 a86:	0072      	movgte r0,r0
 a88:	675f 6f6c 	*unknown*
 a8c:	6162 5f6c 	*unknown*
 a90:	6d69 7570 	*unknown*
 a94:	6572 705f 	*unknown*
 a98:	7274      	strd r3,[r4,0x4]
 a9a:	5f00      	beq b58 <_e_get_global_address+0x60>
 a9c:	7563      	mov r3,0xab
 a9e:	7272 6e65 	*unknown*
 aa2:	5f74      	strd r2,[r7,0x6]
 aa4:	6163      	mov r3,0xb
 aa6:	6574      	strd r3,[r1,0x2]
 aa8:	6f67      	fix r3,r3
 aaa:	7972 4700 	*unknown*
 aae:	554e      	asr r2,r5,0xa
 ab0:	4320      	bgtu b36 <_e_get_global_address+0x3e>
 ab2:	3420      	bgtu b1a <_e_get_global_address+0x22>
 ab4:	382e      	asr r1,r6,0x1
 ab6:	322e      	asr r1,r4,0x11
 ab8:	3220      	bgtu b1c <_e_get_global_address+0x24>
 aba:	3130      	bgteu b1c <_e_get_global_address+0x24>
 abc:	3033      	sub r1,r4,0
 abe:	3237      	fmadd r1,r4,r4
 ac0:	2039 7028 	*unknown*
 ac4:	6572 6572 	*unknown*
 ac8:	656c 7361 	ldrd r27,[r33],-0x30a
 acc:	2965      	ldrd r1,[r2],r2
 ace:	2d20      	bgtu b28 <_e_get_global_address+0x30>
 ad0:	2067      	fix r1,r0
 ad2:	4f2d 2032 	*unknown*
 ad6:	662d 6f6e 	*unknown*
 ada:	622d 6975 	*unknown*
 ade:	746c 6e69 	ldrd r27,[r29],+0x348
 ae2:	5f00      	beq ba0 <_e_dma_busy+0x8>
 ae4:	6e75      	strd r3,[r3],r4
 ae6:	7375      	strd r3,[r4],r6
 ae8:	6465      	ldrd r3,[r1],r0
 aea:	725f 6e61 	*unknown*
 aee:	0064      	ldrd r0,[r0]
 af0:	775f 7364 	*unknown*
 af4:	5f00      	beq bb2 <_e_dma_busy+0x1a>
 af6:	745f 5f6d 	*unknown*
 afa:	6477      	fabs rd,rn
 afc:	7961      	ldrd r3,[r6,r2]
 afe:	5f00      	beq bbc <_e_dma_busy+0x24>
 b00:	6c67      	fix r3,r3
 b02:	6575      	strd r3,[r1],r2
 b04:	5f00      	beq bc2 <_e_dma_busy+0x2a>
 b06:	6d6e      	asr r3,r3,0xb
 b08:	6c61      	ldrd r3,[r3,r0]
 b0a:	6f6c 0063 	ldrd r3,[r3,+0x31e]
 b0e:	6c5f 3436 	*unknown*
 b12:	5f61      	ldrd r2,[r7,r6]
 b14:	7562 0066 	*unknown*
 b18:	735f 6769 	*unknown*
 b1c:	665f 6e75 	*unknown*
 b20:	0063      	mov r0,0x3
 b22:	6e5f 7562 	*unknown*
 b26:	0066      	lsr r0,r0,0x3
 b28:	755f 756e 	*unknown*
 b2c:	6573 0064 	*unknown*
 b30:	5f5f 6d74 	*unknown*
 b34:	695f 6473 	*unknown*
 b38:	7473 5f00 	*unknown*
 b3c:	6f6c 6163 	ldrd r27,[r3,-0x31e]
 b40:	746c 6d69 	ldrd r27,[r29,-0x348]
 b44:	5f65      	ldrd r2,[r7],r6
 b46:	7562 0066 	*unknown*
 b4a:	635f 6f6c 	*unknown*
 b4e:	6573 5f00 	*unknown*
 b52:	3472      	movgte r1,r5
 b54:	0038 6d5f 	bgteu dac954 <__PROG_SIZE_FOR_CORE_+0xcac954>
 b58:	7462      	movgt r3,r5
 b5a:	776f 5f63 	*unknown*
 b5e:	7473 7461 	*unknown*
 b62:	0065      	ldrd r0,[r0],r0
 b64:	705f 7335 	*unknown*
 b68:	5f00      	beq c26 <_e_reg_read+0x22>
 b6a:	745f 5f6d 	*unknown*
 b6e:	646d 7961 	*unknown*
 b72:	6900      	beq c44 <_e_reg_read+0x40>
 b74:	706d 7275 	*unknown*
 b78:	5f65      	ldrd r2,[r7],r6
 b7a:	6164      	ldrd r3,[r0,0x2]
 b7c:	6174      	strd r3,[r0,0x2]
 b7e:	2f00      	beq bdc <_e_dma_busy+0x44>
 b80:	6f68 656d 	bgt cae65e <__PROG_SIZE_FOR_CORE_+0xbae65e>
 b84:	652f 6973 	*unknown*
 b88:	2f6d 7365 	*unknown*
 b8c:	6b64      	ldrd r3,[r2,0x6]
 b8e:	732d 6275 	*unknown*
 b92:	6f6d 7564 	*unknown*
 b96:	656c 752f 	ldrd r27,[r41,-0x17a]
 b9a:	696e      	asr r3,r2,0xb
 b9c:	7273 2d63 	*unknown*
 ba0:	3032      	movgteu r1,r4
 ba2:	3531      	strh r1,[r5,r2]
 ba4:	312e      	asr r1,r4,0x9
 ba6:	6e2f 7765 	*unknown*
 baa:	696c 2f62 	ldrd fp,[r26],-0x312
 bae:	696c 6362 	ldrd r27,[r2],-0x312
 bb2:	722f 6565 	*unknown*
 bb6:	746e      	asr r3,r5,0x3
 bb8:	692f 706d 	*unknown*
 bbc:	7275      	strd r3,[r4],r4
 bbe:	2e65      	ldrd r1,[r3],r4
 bc0:	0063      	mov r0,0x3
 bc2:	5f5f 6163 	*unknown*
 bc6:	6c6c 655f 	ldrd r27,[fp,-0x2f8]
 bca:	6978 7074 	bgte e0f49c <__PROG_SIZE_FOR_CORE_+0xd0f49c>
 bce:	6f72 7363 	*unknown*
 bd2:	6c00      	beq caa <___do_global_ctors_aux+0xa>
 bd4:	7361      	ldrd r3,[r4,r6]
 bd6:	7074      	strd r3,[r4]
 bd8:	2f00      	beq c36 <_e_reg_read+0x32>
 bda:	6f68 656d 	bgt cae6b8 <__PROG_SIZE_FOR_CORE_+0xbae6b8>
 bde:	652f 6973 	*unknown*
 be2:	2f6d 7365 	*unknown*
 be6:	6b64      	ldrd r3,[r2,0x6]
 be8:	732d 6275 	*unknown*
 bec:	6f6d 7564 	*unknown*
 bf0:	656c 752f 	ldrd r27,[r41,-0x17a]
 bf4:	696e      	asr r3,r2,0xb
 bf6:	7273 2d63 	*unknown*
 bfa:	3032      	movgteu r1,r4
 bfc:	3531      	strh r1,[r5,r2]
 bfe:	312e      	asr r1,r4,0x9
 c00:	6e2f 7765 	*unknown*
 c04:	696c 2f62 	ldrd fp,[r26],-0x312
 c08:	696c 6362 	ldrd r27,[r2],-0x312
 c0c:	732f 6474 	*unknown*
 c10:	696c 2f62 	ldrd fp,[r26],-0x312
 c14:	5f5f 6163 	*unknown*
 c18:	6c6c 615f 	ldrd r27,[r3,-0x2f8]
 c1c:	6574      	strd r3,[r1,0x2]
 c1e:	6978 2e74 	bgte 5cf4f0 <__PROG_SIZE_FOR_CORE_+0x4cf4f0>
 c22:	0063      	mov r0,0x3
 c24:	6572 7473 	*unknown*
 c28:	7261      	ldrd r3,[r4,r4]
 c2a:	0074 	strd r0,[r0]

Disassembly of section .debug_loc:

00000000 <.debug_loc>:
   0:	0000      	beq 0 <__CORE_NUM_>
   2:	0000      	beq 2 <__CORE_NUM_+0x2>
   4:	0019 0000 	strb r0,[r0,+r0]
   8:	0001      	ldrb r0,[r0,r0]
   a:	1950      	bltu 3c <_e_group_config+0x14>
   c:	0000      	beq c <__CORE_COL_+0x4>
   e:	3a00      	beq 82 <_exit+0x2>
  10:	0000      	beq 10 <__CORE_COL_+0x8>
  12:	0100      	beq 14 <__CORE_COL_+0xc>
  14:	5400      	beq bc <__global_impure_ptr>
	...
  22:	0042      	movlteu r0,r0
  24:	0000      	beq 24 <__CORE_ROW_+0x4>
  26:	0001      	ldrb r0,[r0,r0]
  28:	4250      	bltu ac <_exit+0x2c>
  2a:	0000      	beq 2a <_e_group_config+0x2>
  2c:	e600      	beq fffffff8 <__SHARED_DRAM_+0x71fffff8>
  2e:	0000      	beq 2e <_e_group_config+0x6>
  30:	0200      	beq 34 <_e_group_config+0xc>
  32:	9000      	beq ffffff52 <__SHARED_DRAM_+0x71ffff52>
  34:	e620      	bgtu 0 <__CORE_NUM_>
  36:	0000      	beq 36 <_e_group_config+0xe>
  38:	f600      	beq 24 <__CORE_ROW_+0x4>
  3a:	0000      	beq 3a <_e_group_config+0x12>
  3c:	0400      	beq 44 <_e_group_config+0x1c>
  3e:	f300      	beq 24 <__CORE_ROW_+0x4>
  40:	5001      	ldrb r2,[r4,r0]
  42:	f69f 0000 	*unknown*
  46:	3400      	beq ae <_exit+0x2e>
  48:	0001      	ldrb r0,[r0,r0]
  4a:	0200      	beq 4e <_e_group_config+0x26>
  4c:	9000      	beq ffffff6c <__SHARED_DRAM_+0x71ffff6c>
  4e:	0020      	bgtu 4e <_e_group_config+0x26>
	...
  58:	0000      	beq 58 <.normal_start>
  5a:	4200      	beq de <___call_exitprocs+0x1e>
  5c:	0000      	beq 5c <.normal_start+0x4>
  5e:	0100      	beq 60 <.normal_start+0x8>
  60:	5100      	beq 102 <___call_exitprocs+0x42>
  62:	0042      	movlteu r0,r0
  64:	0000      	beq 64 <.normal_start+0xc>
  66:	00d6      	lsl r0,r0,0x6
  68:	0000      	beq 68 <__dma_copy_descriptor_>
  6a:	0001      	ldrb r0,[r0,r0]
  6c:	d656      	lsl r6,r5,0x12
  6e:	0000      	beq 6e <__dma_copy_descriptor_+0x6>
  70:	f600      	beq 5c <.normal_start+0x4>
  72:	0000      	beq 72 <__dma_copy_descriptor_+0xa>
  74:	0400      	beq 7c <__dma_copy_descriptor_+0x14>
  76:	f300      	beq 5c <.normal_start+0x4>
  78:	5101      	ldrb r2,[r4,r2]
  7a:	f69f 0000 	*unknown*
  7e:	3400      	beq e6 <___call_exitprocs+0x26>
  80:	0001      	ldrb r0,[r0,r0]
  82:	0100      	beq 84 <_exit+0x4>
  84:	5600      	beq 130 <___call_exitprocs+0x70>
	...
  8e:	0046      	lsr r0,r0,0x2
  90:	0000      	beq 90 <_exit+0x10>
  92:	012c 0000 	ldrh r0,[r0,+0x2]
  96:	0001      	ldrb r0,[r0,r0]
  98:	2c57      	float r1,r3
  9a:	0001      	ldrb r0,[r0,r0]
  9c:	3000      	beq fc <___call_exitprocs+0x3c>
  9e:	0001      	ldrb r0,[r0,r0]
  a0:	0100      	beq a2 <_exit+0x22>
  a2:	5000      	beq 142 <___call_exitprocs+0x82>
  a4:	0130      	bgteu a6 <_exit+0x26>
  a6:	0000      	beq a6 <_exit+0x26>
  a8:	0134      	strh r0,[r0,0x2]
  aa:	0000      	beq aa <_exit+0x2a>
  ac:	0001      	ldrb r0,[r0,r0]
  ae:	0057      	float r0,r0
  b0:	0000      	beq b0 <_exit+0x30>
  b2:	0000      	beq b2 <_exit+0x32>
  b4:	0000      	beq b4 <_exit+0x34>
  b6:	4600      	beq 142 <___call_exitprocs+0x82>
  b8:	0000      	beq b8 <_exit+0x38>
  ba:	4e00      	beq 156 <___call_exitprocs+0x96>
  bc:	0000      	beq bc <__global_impure_ptr>
  be:	0200      	beq c2 <___call_exitprocs+0x2>
  c0:	9000      	beq ffffffe0 <__SHARED_DRAM_+0x71ffffe0>
  c2:	4e21      	ldrh r2,[r3,r4]
  c4:	0000      	beq c4 <___call_exitprocs+0x4>
  c6:	d200      	beq 6a <__dma_copy_descriptor_+0x2>
  c8:	0000      	beq c8 <___call_exitprocs+0x8>
  ca:	0200      	beq ce <___call_exitprocs+0xe>
  cc:	9000      	beq ffffffec <__SHARED_DRAM_+0x71ffffec>
  ce:	f623      	mov r7,0xb1
  d0:	0000      	beq d0 <___call_exitprocs+0x10>
  d2:	3400      	beq 13a <___call_exitprocs+0x7a>
  d4:	0001      	ldrb r0,[r0,r0]
  d6:	0200      	beq da <___call_exitprocs+0x1a>
  d8:	9000      	beq fffffff8 <__SHARED_DRAM_+0x71fffff8>
  da:	0023      	mov r0,0x1
  dc:	0000      	beq dc <___call_exitprocs+0x1c>
  de:	0000      	beq de <___call_exitprocs+0x1e>
  e0:	0000      	beq e0 <___call_exitprocs+0x20>
  e2:	4e00      	beq 17e <___call_exitprocs+0xbe>
  e4:	0000      	beq e4 <___call_exitprocs+0x24>
  e6:	5e00      	beq 1a2 <___call_exitprocs+0xe2>
  e8:	0000      	beq e8 <___call_exitprocs+0x28>
  ea:	0400      	beq f2 <___call_exitprocs+0x32>
  ec:	7700      	beq 1da <___call_exitprocs+0x11a>
  ee:	0188 5e9f 	blt bd3ef0 <__PROG_SIZE_FOR_CORE_+0xad3ef0>
  f2:	0000      	beq f2 <___call_exitprocs+0x32>
  f4:	cc00      	beq 8c <_exit+0xc>
  f6:	0000      	beq f6 <___call_exitprocs+0x36>
  f8:	0100      	beq fa <___call_exitprocs+0x3a>
  fa:	5800      	beq 1aa <___call_exitprocs+0xea>
  fc:	00cc 0000 	ldr r0,[r0,+0x1]
 100:	00d2      	movblte r0,r0
 102:	0000      	beq 102 <___call_exitprocs+0x42>
 104:	0004      	ldrb r0,[r0]
 106:	8877      	fabs rd,rn
 108:	9f01      	ldrb r4,[r7,r6]
 10a:	00f6      	lsl r0,r0,0x7
 10c:	0000      	beq 10c <___call_exitprocs+0x4c>
 10e:	0106      	lsr r0,r0,0x8
 110:	0000      	beq 110 <___call_exitprocs+0x50>
 112:	0001      	ldrb r0,[r0,r0]
 114:	0658 0001 	bltu 320 <_impure_data+0x120>
 118:	2000      	beq 158 <___call_exitprocs+0x98>
 11a:	0001      	ldrb r0,[r0,r0]
 11c:	0400      	beq 124 <___call_exitprocs+0x64>
 11e:	7700      	beq 20c <_impure_data+0xc>
 120:	0188 269f 	blt 4d3f22 <__PROG_SIZE_FOR_CORE_+0x3d3f22>
 124:	0001      	ldrb r0,[r0,r0]
 126:	2e00      	beq 182 <___call_exitprocs+0xc2>
 128:	0001      	ldrb r0,[r0,r0]
 12a:	0400      	beq 132 <___call_exitprocs+0x72>
 12c:	7700      	beq 21a <_impure_data+0x1a>
 12e:	0188 2e9f 	blt 5d3f30 <__PROG_SIZE_FOR_CORE_+0x4d3f30>
 132:	0001      	ldrb r0,[r0,r0]
 134:	3000      	beq 194 <___call_exitprocs+0xd4>
 136:	0001      	ldrb r0,[r0,r0]
 138:	0500      	beq 142 <___call_exitprocs+0x82>
 13a:	9200      	beq 5e <.normal_start+0x6>
 13c:	8823      	mov r4,0x41
 13e:	9f01      	ldrb r4,[r7,r6]
 140:	0130      	bgteu 142 <___call_exitprocs+0x82>
 142:	0000      	beq 142 <___call_exitprocs+0x82>
 144:	0134      	strh r0,[r0,0x2]
 146:	0000      	beq 146 <___call_exitprocs+0x86>
 148:	0004      	ldrb r0,[r0]
 14a:	8877      	fabs rd,rn
 14c:	9f01      	ldrb r4,[r7,r6]
	...
 156:	0052      	movltu r0,r0
 158:	0000      	beq 158 <___call_exitprocs+0x98>
 15a:	00d2      	movblte r0,r0
 15c:	0000      	beq 15c <___call_exitprocs+0x9c>
 15e:	0001      	ldrb r0,[r0,r0]
 160:	f654      	str r7,[r5,0x4]
 162:	0000      	beq 162 <___call_exitprocs+0xa2>
 164:	3400      	beq 1cc <___call_exitprocs+0x10c>
 166:	0001      	ldrb r0,[r0,r0]
 168:	0100      	beq 16a <___call_exitprocs+0xaa>
 16a:	5400      	beq 212 <_impure_data+0x12>
	...
 174:	0066      	lsr r0,r0,0x3
 176:	0000      	beq 176 <___call_exitprocs+0xb6>
 178:	006e      	asr r0,r0,0x3
 17a:	0000      	beq 17a <___call_exitprocs+0xba>
 17c:	0005      	ldrb r0,[r0],r0
 17e:	7431      	strh r3,[r5,r0]
 180:	2400      	beq 1c8 <___call_exitprocs+0x108>
 182:	6e9f 0000 	*unknown*
 186:	7400      	beq 26e <_impure_data+0x6e>
 188:	0000      	beq 188 <___call_exitprocs+0xc8>
 18a:	0500      	beq 194 <___call_exitprocs+0xd4>
 18c:	3100      	beq 1ee <___call_exitprocs+0x12e>
 18e:	0174      	strd r0,[r0,0x2]
 190:	9f24      	ldrh r4,[r7,0x6]
 192:	0074      	strd r0,[r0]
 194:	0000      	beq 194 <___call_exitprocs+0xd4>
 196:	00c6      	lsr r0,r0,0x6
 198:	0000      	beq 198 <___call_exitprocs+0xd8>
 19a:	0005      	ldrb r0,[r0],r0
 19c:	7431      	strh r3,[r5,r0]
 19e:	2400      	beq 1e6 <___call_exitprocs+0x126>
 1a0:	c69f 0000 	*unknown*
 1a4:	cc00      	beq 13c <___call_exitprocs+0x7c>
 1a6:	0000      	beq 1a6 <___call_exitprocs+0xe6>
 1a8:	0500      	beq 1b2 <___call_exitprocs+0xf2>
 1aa:	3100      	beq 20c <_impure_data+0xc>
 1ac:	0174      	strd r0,[r0,0x2]
 1ae:	9f24      	ldrh r4,[r7,0x6]
 1b0:	00f6      	lsl r0,r0,0x7
 1b2:	0000      	beq 1b2 <___call_exitprocs+0xf2>
 1b4:	0106      	lsr r0,r0,0x8
 1b6:	0000      	beq 1b6 <___call_exitprocs+0xf6>
 1b8:	0005      	ldrb r0,[r0],r0
 1ba:	7431      	strh r3,[r5,r0]
 1bc:	2400      	beq 204 <_impure_data+0x4>
 1be:	009f 0000 	*unknown*
 1c2:	0000      	beq 1c2 <___call_exitprocs+0x102>
 1c4:	0000      	beq 1c4 <___call_exitprocs+0x104>
 1c6:	8800      	beq d6 <___call_exitprocs+0x16>
 1c8:	0000      	beq 1c8 <___call_exitprocs+0x108>
 1ca:	b300      	beq 130 <___call_exitprocs+0x70>
 1cc:	0000      	beq 1cc <___call_exitprocs+0x10c>
 1ce:	0100      	beq 1d0 <___call_exitprocs+0x110>
 1d0:	5200      	beq 274 <_impure_data+0x74>
 1d2:	00f6      	lsl r0,r0,0x7
 1d4:	0000      	beq 1d4 <___call_exitprocs+0x114>
 1d6:	00f7      	fabs rd,rn
 1d8:	0000      	beq 1d8 <___call_exitprocs+0x118>
 1da:	0001      	ldrb r0,[r0,r0]
 1dc:	fa52 0000 	*unknown*
 1e0:	0300      	beq 1e6 <___call_exitprocs+0x126>
 1e2:	0001      	ldrb r0,[r0,r0]
 1e4:	0100      	beq 1e6 <___call_exitprocs+0x126>
 1e6:	5200      	beq 28a <_impure_data+0x8a>
	...
 1f0:	00a0      	bbeq 1f0 <___call_exitprocs+0x130>
 1f2:	0000      	beq 1f2 <___call_exitprocs+0x132>
 1f4:	00cc 0000 	ldr r0,[r0,+0x1]
 1f8:	0001      	ldrb r0,[r0,r0]
 1fa:	f65f 0000 	*unknown*
 1fe:	fa00      	beq 1f2 <___call_exitprocs+0x132>
 200:	0000      	beq 200 <_impure_data>
 202:	0100      	beq 204 <_impure_data+0x4>
 204:	5f00      	beq 2c2 <_impure_data+0xc2>
 206:	00fe 0000 	*unknown*
 20a:	0106      	lsr r0,r0,0x8
 20c:	0000      	beq 20c <_impure_data+0xc>
 20e:	0001      	ldrb r0,[r0,r0]
 210:	005f 0000 	*unknown*
 214:	0000      	beq 214 <_impure_data+0x14>
 216:	0000 	beq 216 <_impure_data+0x16>
	...

Disassembly of section .debug_ranges:

00000000 <___stack-0x7ff0>:
   0:	0032      	movgteu r0,r0
   2:	0000      	beq 2 <__CORE_NUM_+0x2>
   4:	003a      	sub r0,r0,r0
   6:	0000      	beq 6 <__NUM_COLS_IN_CHIP_+0x2>
   8:	0066      	lsr r0,r0,0x3
   a:	0000      	beq a <__CORE_COL_+0x2>
   c:	006c 0000 	ldrd r0,[r0,+0x0]
  10:	0074      	strd r0,[r0]
  12:	0000      	beq 12 <__CORE_COL_+0xa>
  14:	00c4      	ldr r0,[r0,0x1]
  16:	0000      	beq 16 <__CORE_COL_+0xe>
  18:	00f6      	lsl r0,r0,0x7
  1a:	0000      	beq 1a <__CORE_COL_+0x12>
  1c:	0106      	lsr r0,r0,0x8
	...
