
e-task.elf:     file format elf32-epiphany


Disassembly of section ivt_reset:

00000000 <_start>:
   0:	2ce8 0000 	b 58 <.normal_start>

Disassembly of section workgroup_config:

00000028 <_e_group_config>:
	...

Disassembly of section external_mem_config:

00000050 <_e_emem_config>:
	...

Disassembly of section .reserved_crt0:

00000058 <.normal_start>:
  58:	700b 0062 	mov r3,0x680
  5c:	600b 1002 	movt r3,0x0
  60:	0d52      	jalr r3
	...

Disassembly of section NEW_LIB_RO:

00000080 <_exit>:
  80:	965c 0700 	str r4,[sp],-0x4
  84:	580b 0002 	mov r2,0xc0
  88:	2003      	mov r1,0x0
  8a:	400b 1002 	movt r2,0x0
  8e:	76dc 2400 	str fp,[sp,+0x5]
  92:	d5dc 2400 	str lr,[sp,+0x3]
  96:	80e2      	mov r4,r0
  98:	0952      	jalr r2
  9a:	178b 0002 	mov r0,0xbc
  9e:	000b 1002 	movt r0,0x0
  a2:	0044      	ldr r0,[r0]
  a4:	23cc 0001 	ldr r1,[r0,+0xf]
  a8:	4433      	sub r2,r1,0
  aa:	0200      	beq ae <_exit+0x2e>
  ac:	0552      	jalr r1
  ae:	290b 0062 	mov r1,0x648
  b2:	10e2      	mov r0,r4
  b4:	200b 1002 	movt r1,0x0
  b8:	0552      	jalr r1
  ba:	01a2      	nop

000000bc <__global_impure_ptr>:
  bc:	0200      	beq c0 <___call_exitprocs>
	...

000000c0 <___call_exitprocs>:
  c0:	578b 0002 	mov r2,0xbc
  c4:	97fc 0700 	strd r4,[sp],-0x7
  c8:	400b 1002 	movt r2,0x0
  cc:	567c 2400 	strd r10,[sp,+0x4]
  d0:	684c 2000 	ldr fp,[r2,+0x0]
  d4:	54fc 8400 	strd r34,[sp,+0x1]
  d8:	400b 8002 	mov r34,0x0
  dc:	157c 8400 	strd r32,[sp,+0x2]
  e0:	d77c 0400 	strd r6,[sp,+0x6]
  e4:	16fc 2400 	strd r8,[sp,+0x5]
  e8:	00ef 8002 	mov r32,r0
  ec:	c4e2      	mov r6,r1
  ee:	2c1b 8429 	add r33,fp,328
  f2:	202b 2002 	mov r9,0x1
  f6:	400b 2002 	mov r10,0x0
  fa:	400b 9002 	movt r34,0x0
  fe:	d5fc 2400 	strd lr,[sp,+0x3]
 102:	ed4c 040a 	ldr r7,[fp,+0x52]
 106:	1c33      	sub r0,r7,0
 108:	4500      	beq 192 <___call_exitprocs+0xd2>
 10a:	64ef 9002 	mov r35,r33
 10e:	1cc4      	ldr r0,[r7,0x1]
 110:	8393      	add r4,r0,-1
 112:	3033      	sub r1,r4,0
 114:	3c80      	blt 18c <___call_exitprocs+0xcc>
 116:	a39b 0003 	add r5,r0,31
 11a:	1c1b 2011 	add r8,r7,136
 11e:	b456      	lsl r5,r5,0x2
 120:	a29f 040a 	add r5,r8,r5
 124:	08e0      	b 134 <___call_exitprocs+0x74>
 126:	3444      	ldr r1,[r5]
 128:	073a      	sub r0,r1,r6
 12a:	0700      	beq 138 <___call_exitprocs+0x78>
 12c:	9393      	add r4,r4,-1
 12e:	b613      	add r5,r5,-4
 130:	33b3      	sub r1,r4,-1
 132:	2d00      	beq 18c <___call_exitprocs+0xcc>
 134:	3833      	sub r1,r6,0
 136:	f810      	bne 126 <___call_exitprocs+0x66>
 138:	5cc4      	ldr r2,[r7,0x1]
 13a:	343f 008a 	sub r1,r5,r8
 13e:	3c9a      	add r1,r7,r1
 140:	4b93      	add r2,r2,-1
 142:	0a3a      	sub r0,r2,r4
 144:	474c 0103 	ldr r2,[r1,-0x1e]
 148:	3900      	beq 1ba <___call_exitprocs+0xfa>
 14a:	475c 2103 	str r10,[r1,-0x1e]
 14e:	2833      	sub r1,r2,0
 150:	ee00      	beq 12c <___call_exitprocs+0x6c>
 152:	7d4c 000c 	ldr r3,[r7,+0x62]
 156:	262f 040a 	lsl r1,r9,r4
 15a:	65da      	and r3,r1,r3
 15c:	fccc 2000 	ldr r15,[r7,+0x1]
 160:	2b00      	beq 1b6 <___call_exitprocs+0xf6>
 162:	1dcc 000c 	ldr r0,[r7,+0x63]
 166:	245a      	and r1,r1,r0
 168:	2b10      	bne 1be <___call_exitprocs+0xfe>
 16a:	344c 0104 	ldr r1,[r5,-0x20]
 16e:	00ef 1002 	mov r0,r32
 172:	0952      	jalr r2
 174:	3cc4      	ldr r1,[r7,0x1]
 176:	07bf 008a 	sub r0,r1,r15
 17a:	c410      	bne 102 <___call_exitprocs+0x42>
 17c:	0c4c 1000 	ldr r0,[r35,+0x0]
 180:	23ba      	sub r1,r0,r7
 182:	c010      	bne 102 <___call_exitprocs+0x42>
 184:	9393      	add r4,r4,-1
 186:	b613      	add r5,r5,-4
 188:	33b3      	sub r1,r4,-1
 18a:	d510      	bne 134 <___call_exitprocs+0x74>
 18c:	083b 1000 	sub r0,r34,0
 190:	1b10      	bne 1c6 <___call_exitprocs+0x106>
 192:	d76c 0400 	ldrd r6,[sp,+0x6]
 196:	16ec 2400 	ldrd r8,[sp,+0x5]
 19a:	566c 2400 	ldrd r10,[sp,+0x4]
 19e:	d5ec 2400 	ldrd lr,[sp,+0x3]
 1a2:	156c 8400 	ldrd r32,[sp,+0x2]
 1a6:	54ec 8400 	ldrd r34,[sp,+0x1]
 1aa:	b41b 2407 	add sp,sp,56
 1ae:	946c 0400 	ldrd r4,[sp,+0x0]
 1b2:	194f 0402 	rts
 1b6:	0952      	jalr r2
 1b8:	dee0      	b 174 <___call_exitprocs+0xb4>
 1ba:	9cd4      	str r4,[r7,0x1]
 1bc:	c9e0      	b 14e <___call_exitprocs+0x8e>
 1be:	144c 0104 	ldr r0,[r5,-0x20]
 1c2:	0952      	jalr r2
 1c4:	d8e0      	b 174 <___call_exitprocs+0xb4>
 1c6:	1cc4      	ldr r0,[r7,0x1]
 1c8:	2033      	sub r1,r0,0
 1ca:	0e10      	bne 1e6 <___call_exitprocs+0x126>
 1cc:	3c44      	ldr r1,[r7]
 1ce:	0433      	sub r0,r1,0
 1d0:	1000      	beq 1f0 <___call_exitprocs+0x130>
 1d2:	1ce2      	mov r0,r7
 1d4:	2c5c 1000 	str r1,[r35]
 1d8:	095f 1002 	jalr r34
 1dc:	ec4c 1000 	ldr r7,[r35,+0x0]
 1e0:	3c33      	sub r1,r7,0
 1e2:	9610      	bne 10e <___call_exitprocs+0x4e>
 1e4:	d7e0      	b 192 <___call_exitprocs+0xd2>
 1e6:	1c44      	ldr r0,[r7]
 1e8:	7cef 8002 	mov r35,r7
 1ec:	e0e2      	mov r7,r0
 1ee:	f9e0      	b 1e0 <___call_exitprocs+0x120>
 1f0:	0003      	mov r0,0x0
 1f2:	fbe0 	b 1e8 <___call_exitprocs+0x128>

Disassembly of section NEW_LIB_WR:

000001f8 <__impure_ptr>:
 1f8:	0200      	beq 1fc <__impure_ptr+0x4>
 1fa:	0000      	beq 1fa <__impure_ptr+0x2>
 1fc:	0000      	beq 1fc <__impure_ptr+0x4>
	...

00000200 <_impure_data>:
 200:	0000      	beq 200 <_impure_data>
 202:	0000      	beq 202 <_impure_data+0x2>
 204:	04f8 0000 	bl 20c <_impure_data+0xc>
 208:	0568 0000 	bgt 212 <_impure_data+0x12>
 20c:	05d8 0000 	bblte 216 <_impure_data+0x16>
	...
 234:	0d40      	blteu 24e <_impure_data+0x4e>
	...
 2ae:	0000      	beq 2ae <_impure_data+0xae>
 2b0:	0001      	ldrb r0,[r0,r0]
 2b2:	0000      	beq 2b2 <_impure_data+0xb2>
 2b4:	0000      	beq 2b4 <_impure_data+0xb4>
 2b6:	0000      	beq 2b6 <_impure_data+0xb6>
 2b8:	330e      	asr r1,r4,0x18
 2ba:	abcd 1234 	*unknown*
 2be:	e66d deec 	*unknown*
 2c2:	0005      	ldrb r0,[r0],r0
 2c4:	000b 0000 	*unknown*
	...

Disassembly of section GNU_C_BUILTIN_LIB_RO:

00000648 <__exit>:
 648:	0fe2      	trap 0x3
 64a:	ffe8 ffff 	b 648 <__exit>

Disassembly of section .init:

0000064e <init>:
 64e:	d65c 2700 	str lr,[sp],-0x4
 652:	1c8b 0072 	mov r0,0x7e4
 656:	000b 1002 	movt r0,0x0
 65a:	0152      	jalr r0
 65c:	140b 00c2 	mov r0,0xca0
 660:	000b 1002 	movt r0,0x0
 664:	0152      	jalr r0
 666:	d64c 2400 	ldr lr,[sp,+0x4]
 66a:	b41b 2402 	add sp,sp,16
 66e:	194f 0402 	rts

Disassembly of section .text:

00000680 <_epiphany_start>:
 680:	be0b 27f2 	mov sp,0x7ff0
 684:	a00b 3002 	movt sp,0x0
 688:	600b 2002 	mov fp,0x0
 68c:	090b 00d2 	mov r0,0xd48
 690:	000b 1002 	movt r0,0x0
 694:	2a0b 00d2 	mov r1,0xd50
 698:	200b 1002 	movt r1,0x0
 69c:	4003      	mov r2,0x0
 69e:	6003      	mov r3,0x0
 6a0:	40fc 0200 	strd r2,[r0],+0x1
 6a4:	a43a      	sub r5,r1,r0
 6a6:	fd10      	bne 6a0 <_epiphany_start+0x20>
 6a8:	5f0b 0012 	mov r2,0x1f8
 6ac:	400b 1002 	movt r2,0x0
 6b0:	4844      	ldr r2,[r2]
 6b2:	3c8b 00c2 	mov r1,0xce4
 6b6:	200b 1002 	movt r1,0x0
 6ba:	0a1b 0029 	add r0,r2,332
 6be:	00dc 0100 	str r0,[r0,-0x1]
 6c2:	0023      	mov r0,0x1
 6c4:	097c 0005 	strd r0,[r2,+0x2a]
 6c8:	49cb 0062 	mov r2,0x64e
 6cc:	400b 1002 	movt r2,0x0
 6d0:	0952      	jalr r2
 6d2:	1feb 0ff2 	mov r0,0xffff
 6d6:	050f 0402 	movts imask,r0
 6da:	1d0b 0062 	mov r0,0x6e8
 6de:	000b 1002 	movt r0,0x0
 6e2:	010f 0402 	movts iret,r0
 6e6:	01d2      	rti

000006e8 <RDS>:
 6e8:	0003      	mov r0,0x0
 6ea:	2003      	mov r1,0x0
 6ec:	4003      	mov r2,0x0
 6ee:	640b 0082 	mov r3,0x820
 6f2:	600b 1002 	movt r3,0x0
 6f6:	0d52      	jalr r3
 6f8:	700b 0002 	mov r3,0x80
 6fc:	600b 1002 	movt r3,0x0
 700:	0d52      	jalr r3
 702:	01b2      	idle
	...

00000710 <_deregister_tm_clones>:
 710:	080b 00d2 	mov r0,0xd40
 714:	286b 00d2 	mov r1,0xd43
 718:	000b 1002 	movt r0,0x0
 71c:	200b 1002 	movt r1,0x0
 720:	243a      	sub r1,r1,r0
 722:	473b 0000 	sub r2,r1,6
 726:	0320      	bgtu 72c <_deregister_tm_clones+0x1c>
 728:	194f 0402 	rts
 72c:	200b 0002 	mov r1,0x0
 730:	200b 1002 	movt r1,0x0
 734:	4433      	sub r2,r1,0
 736:	f900      	beq 728 <_deregister_tm_clones+0x18>
 738:	0542      	jr r1
 73a:	01a2      	nop

0000073c <_register_tm_clones>:
 73c:	080b 00d2 	mov r0,0xd40
 740:	280b 00d2 	mov r1,0xd40
 744:	000b 1002 	movt r0,0x0
 748:	200b 1002 	movt r1,0x0
 74c:	243a      	sub r1,r1,r0
 74e:	244e      	asr r1,r1,0x2
 750:	47e6      	lsr r2,r1,0x1f
 752:	289a      	add r1,r2,r1
 754:	242e      	asr r1,r1,0x1
 756:	4433      	sub r2,r1,0
 758:	0310      	bne 75e <_register_tm_clones+0x22>
 75a:	194f 0402 	rts
 75e:	400b 0002 	mov r2,0x0
 762:	400b 1002 	movt r2,0x0
 766:	6833      	sub r3,r2,0
 768:	f900      	beq 75a <_register_tm_clones+0x1e>
 76a:	0942      	jr r2

0000076c <___do_global_dtors_aux>:
 76c:	95fc 0700 	strd r4,[sp],-0x3
 770:	d57c 0400 	strd r6,[sp,+0x2]
 774:	e90b 00d2 	mov r7,0xd48
 778:	e00b 1002 	movt r7,0x0
 77c:	1c04      	ldrb r0,[r7]
 77e:	75dc 2400 	str fp,[sp,+0x3]
 782:	d55c 2400 	str lr,[sp,+0x2]
 786:	2033      	sub r1,r0,0
 788:	2210      	bne 7cc <___do_global_dtors_aux+0x60>
 78a:	c10b 00d2 	mov r6,0xd08
 78e:	a18b 00d2 	mov r5,0xd0c
 792:	c00b 1002 	movt r6,0x0
 796:	898b 00d2 	mov r4,0xd4c
 79a:	a00b 1002 	movt r5,0x0
 79e:	b73a      	sub r5,r5,r6
 7a0:	800b 1002 	movt r4,0x0
 7a4:	b44e      	asr r5,r5,0x2
 7a6:	1044      	ldr r0,[r4]
 7a8:	b793      	add r5,r5,-1
 7aa:	22ba      	sub r1,r0,r5
 7ac:	0930      	bgteu 7be <___do_global_dtors_aux+0x52>
 7ae:	0093      	add r0,r0,1
 7b0:	2056      	lsl r1,r0,0x2
 7b2:	38c1      	ldr r1,[r6,r1]
 7b4:	1054      	str r0,[r4]
 7b6:	0552      	jalr r1
 7b8:	1044      	ldr r0,[r4]
 7ba:	22ba      	sub r1,r0,r5
 7bc:	f950      	bltu 7ae <___do_global_dtors_aux+0x42>
 7be:	020b 0072 	mov r0,0x710
 7c2:	000b 1002 	movt r0,0x0
 7c6:	0152      	jalr r0
 7c8:	0023      	mov r0,0x1
 7ca:	1c14      	strb r0,[r7]
 7cc:	d56c 0400 	ldrd r6,[sp,+0x2]
 7d0:	75cc 2400 	ldr fp,[sp,+0x3]
 7d4:	d54c 2400 	ldr lr,[sp,+0x2]
 7d8:	b41b 2403 	add sp,sp,24
 7dc:	946c 0400 	ldrd r4,[sp,+0x0]
 7e0:	194f 0402 	rts

000007e4 <_frame_dummy>:
 7e4:	020b 00d2 	mov r0,0xd10
 7e8:	000b 1002 	movt r0,0x0
 7ec:	2044      	ldr r1,[r0]
 7ee:	755c 2700 	str fp,[sp],-0x2
 7f2:	d5dc 2400 	str lr,[sp,+0x3]
 7f6:	4433      	sub r2,r1,0
 7f8:	0800      	beq 808 <__HEAP_SIZE_FOR_CORE_+0x8>
 7fa:	200b 0002 	mov r1,0x0
 7fe:	200b 1002 	movt r1,0x0
 802:	4433      	sub r2,r1,0
 804:	0200      	beq 808 <__HEAP_SIZE_FOR_CORE_+0x8>
 806:	0552      	jalr r1
 808:	078b 0072 	mov r0,0x73c
 80c:	d5cc 2400 	ldr lr,[sp,+0x3]
 810:	754c 2400 	ldr fp,[sp,+0x2]
 814:	000b 1002 	movt r0,0x0
 818:	b41b 2401 	add sp,sp,8
 81c:	0142      	jr r0
 81e:	01a2      	nop

00000820 <_main>:
 820:	745c 2701 	str fp,[sp],-0x8
 824:	d4dc 2401 	str lr,[sp,+0x9]
 828:	74ef 2402 	mov fp,sp
 82c:	020b 0032 	mov r0,0x310
 830:	01eb 1812 	movt r0,0x810f
 834:	0fdc 0400 	str r0,[fp,+0x7]
 838:	020b 0322 	mov r0,0x3210
 83c:	0a8b 1762 	movt r0,0x7654
 840:	330b 0ba2 	mov r1,0xba98
 844:	3b8b 1fe2 	movt r1,0xfedc
 848:	0d7c 0400 	strd r0,[fp,+0x2]
 84c:	2c1b 0402 	add r1,fp,16
 850:	0fcc 0400 	ldr r0,[fp,+0x7]
 854:	4103      	mov r2,0x8
 856:	6e0b 0082 	mov r3,0x870
 85a:	600b 1002 	movt r3,0x0
 85e:	0d52      	jalr r3
 860:	d4cc 2401 	ldr lr,[sp,+0x9]
 864:	744c 2401 	ldr fp,[sp,+0x8]
 868:	b41b 2404 	add sp,sp,32
 86c:	194f 0402 	rts

00000870 <_e_dma_copy>:
 870:	765c 2701 	str fp,[sp],-0xc
 874:	d6dc 2401 	str lr,[sp,+0xd]
 878:	74ef 2402 	mov fp,sp
 87c:	0edc 0400 	str r0,[fp,+0x5]
 880:	2e5c 0400 	str r1,[fp,+0x4]
 884:	4ddc 0400 	str r2,[fp,+0x3]
 888:	0023      	mov r0,0x1
 88a:	0d5c 0401 	str r0,[fp,+0xa]
 88e:	2ecc 0400 	ldr r1,[fp,+0x5]
 892:	0e4c 0400 	ldr r0,[fp,+0x4]
 896:	247a      	orr r1,r1,r0
 898:	0dcc 0400 	ldr r0,[fp,+0x3]
 89c:	247a      	orr r1,r1,r0
 89e:	00e3      	mov r0,0x7
 8a0:	045a      	and r0,r1,r0
 8a2:	0cdc 0401 	str r0,[fp,+0x9]
 8a6:	0ccc 0401 	ldr r0,[fp,+0x9]
 8aa:	2056      	lsl r1,r0,0x2
 8ac:	040b 00d2 	mov r0,0xd20
 8b0:	000b 1002 	movt r0,0x0
 8b4:	041a      	add r0,r1,r0
 8b6:	2044      	ldr r1,[r0]
 8b8:	0063      	mov r0,0x3
 8ba:	047a      	orr r0,r1,r0
 8bc:	0ddc 0401 	str r0,[fp,+0xb]
 8c0:	2ecc 0400 	ldr r1,[fp,+0x5]
 8c4:	000b 0002 	mov r0,0x0
 8c8:	1e0b 1ff2 	movt r0,0xfff0
 8cc:	045a      	and r0,r1,r0
 8ce:	2033      	sub r1,r0,0
 8d0:	0810      	bne 8e0 <_e_dma_copy+0x70>
 8d2:	2dcc 0401 	ldr r1,[fp,+0xb]
 8d6:	000b 0042 	mov r0,0x400
 8da:	047a      	orr r0,r1,r0
 8dc:	0ddc 0401 	str r0,[fp,+0xb]
 8e0:	0ccc 0401 	ldr r0,[fp,+0x9]
 8e4:	2056      	lsl r1,r0,0x2
 8e6:	040b 00d2 	mov r0,0xd20
 8ea:	000b 1002 	movt r0,0x0
 8ee:	041a      	add r0,r1,r0
 8f0:	0044      	ldr r0,[r0]
 8f2:	00a6      	lsr r0,r0,0x5
 8f4:	0c5c 0401 	str r0,[fp,+0x8]
 8f8:	0c4c 0401 	ldr r0,[fp,+0x8]
 8fc:	202b 0002 	mov r1,0x1
 900:	202b 1002 	movt r1,0x1
 904:	042a      	lsl r0,r1,r0
 906:	0fdc 0400 	str r0,[fp,+0x7]
 90a:	0d0b 0002 	mov r0,0x68
 90e:	000b 1002 	movt r0,0x0
 912:	2dcc 0401 	ldr r1,[fp,+0xb]
 916:	2054      	str r1,[r0]
 918:	0d8b 0002 	mov r0,0x6c
 91c:	000b 1002 	movt r0,0x0
 920:	2fcc 0400 	ldr r1,[fp,+0x7]
 924:	2054      	str r1,[r0]
 926:	0c4c 0401 	ldr r0,[fp,+0x8]
 92a:	2dcc 0400 	ldr r1,[fp,+0x3]
 92e:	244a      	lsr r1,r1,r0
 930:	000b 0002 	mov r0,0x0
 934:	002b 1002 	movt r0,0x1
 938:	247a      	orr r1,r1,r0
 93a:	0e0b 0002 	mov r0,0x70
 93e:	000b 1002 	movt r0,0x0
 942:	2054      	str r1,[r0]
 944:	0e8b 0002 	mov r0,0x74
 948:	000b 1002 	movt r0,0x0
 94c:	2fcc 0400 	ldr r1,[fp,+0x7]
 950:	2054      	str r1,[r0]
 952:	0f0b 0002 	mov r0,0x78
 956:	000b 1002 	movt r0,0x0
 95a:	2e4c 0400 	ldr r1,[fp,+0x4]
 95e:	2054      	str r1,[r0]
 960:	0f8b 0002 	mov r0,0x7c
 964:	000b 1002 	movt r0,0x0
 968:	2ecc 0400 	ldr r1,[fp,+0x5]
 96c:	2054      	str r1,[r0]
 96e:	0d0b 0002 	mov r0,0x68
 972:	000b 1002 	movt r0,0x0
 976:	2d4c 0401 	ldr r1,[fp,+0xa]
 97a:	560b 0092 	mov r2,0x9b0
 97e:	400b 1002 	movt r2,0x0
 982:	0952      	jalr r2
 984:	0f5c 0400 	str r0,[fp,+0x6]
 988:	01a2      	nop
 98a:	0d4c 0401 	ldr r0,[fp,+0xa]
 98e:	330b 00b2 	mov r1,0xb98
 992:	200b 1002 	movt r1,0x0
 996:	0552      	jalr r1
 998:	2033      	sub r1,r0,0
 99a:	f810      	bne 98a <_e_dma_copy+0x11a>
 99c:	0f4c 0400 	ldr r0,[fp,+0x6]
 9a0:	d6cc 2401 	ldr lr,[sp,+0xd]
 9a4:	764c 2401 	ldr fp,[sp,+0xc]
 9a8:	b41b 2406 	add sp,sp,48
 9ac:	194f 0402 	rts

000009b0 <_e_dma_start>:
 9b0:	745c 2701 	str fp,[sp],-0x8
 9b4:	d4dc 2401 	str lr,[sp,+0x9]
 9b8:	74ef 2402 	mov fp,sp
 9bc:	0edc 0400 	str r0,[fp,+0x5]
 9c0:	2e5c 0400 	str r1,[fp,+0x4]
 9c4:	1feb 0ff2 	mov r0,0xffff
 9c8:	1feb 1ff2 	movt r0,0xffff
 9cc:	0fdc 0400 	str r0,[fp,+0x7]
 9d0:	2e4c 0400 	ldr r1,[fp,+0x4]
 9d4:	0023      	mov r0,0x1
 9d6:	047a      	orr r0,r1,r0
 9d8:	20b3      	sub r1,r0,1
 9da:	0600      	beq 9e6 <_e_dma_start+0x36>
 9dc:	1feb 0ff2 	mov r0,0xffff
 9e0:	1feb 1ff2 	movt r0,0xffff
 9e4:	39e0      	b a56 <_e_dma_start+0xa6>
 9e6:	01a2      	nop
 9e8:	0e4c 0400 	ldr r0,[fp,+0x4]
 9ec:	330b 00b2 	mov r1,0xb98
 9f0:	200b 1002 	movt r1,0x0
 9f4:	0552      	jalr r1
 9f6:	2033      	sub r1,r0,0
 9f8:	f810      	bne 9e8 <_e_dma_start+0x38>
 9fa:	0ecc 0400 	ldr r0,[fp,+0x5]
 9fe:	2216      	lsl r1,r0,0x10
 a00:	0103      	mov r0,0x8
 a02:	047a      	orr r0,r1,r0
 a04:	0f5c 0400 	str r0,[fp,+0x6]
 a08:	0e4c 0400 	ldr r0,[fp,+0x4]
 a0c:	2033      	sub r1,r0,0
 a0e:	0400      	beq a16 <_e_dma_start+0x66>
 a10:	20b3      	sub r1,r0,1
 a12:	1100      	beq a34 <_e_dma_start+0x84>
 a14:	1fe0      	b a52 <_e_dma_start+0xa2>
 a16:	000b 0052 	mov r0,0x500
 a1a:	01eb 1002 	movt r0,0xf
 a1e:	2f4c 0400 	ldr r1,[fp,+0x6]
 a22:	4d0b 00a2 	mov r2,0xa68
 a26:	400b 1002 	movt r2,0x0
 a2a:	0952      	jalr r2
 a2c:	0003      	mov r0,0x0
 a2e:	0fdc 0400 	str r0,[fp,+0x7]
 a32:	10e0      	b a52 <_e_dma_start+0xa2>
 a34:	040b 0052 	mov r0,0x520
 a38:	01eb 1002 	movt r0,0xf
 a3c:	2f4c 0400 	ldr r1,[fp,+0x6]
 a40:	4d0b 00a2 	mov r2,0xa68
 a44:	400b 1002 	movt r2,0x0
 a48:	0952      	jalr r2
 a4a:	0003      	mov r0,0x0
 a4c:	0fdc 0400 	str r0,[fp,+0x7]
 a50:	01a2      	nop
 a52:	0fcc 0400 	ldr r0,[fp,+0x7]
 a56:	d4cc 2401 	ldr lr,[sp,+0x9]
 a5a:	744c 2401 	ldr fp,[sp,+0x8]
 a5e:	b41b 2404 	add sp,sp,32
 a62:	194f 0402 	rts
 a66:	01a2      	nop

00000a68 <_e_reg_write>:
 a68:	745c 2701 	str fp,[sp],-0x8
 a6c:	d4dc 2401 	str lr,[sp,+0x9]
 a70:	74ef 2402 	mov fp,sp
 a74:	0edc 0400 	str r0,[fp,+0x5]
 a78:	2e5c 0400 	str r1,[fp,+0x4]
 a7c:	0e4c 0400 	ldr r0,[fp,+0x4]
 a80:	0f5c 0400 	str r0,[fp,+0x6]
 a84:	0ecc 0400 	ldr r0,[fp,+0x5]
 a88:	200b 0042 	mov r1,0x400
 a8c:	21eb 1002 	movt r1,0xf
 a90:	40ba      	sub r2,r0,r1
 a92:	0800      	beq aa2 <_e_reg_write+0x3a>
 a94:	208b 0042 	mov r1,0x404
 a98:	21eb 1002 	movt r1,0xf
 a9c:	40ba      	sub r2,r0,r1
 a9e:	0600      	beq aaa <_e_reg_write+0x42>
 aa0:	09e0      	b ab2 <_e_reg_write+0x4a>
 aa2:	0f4c 0400 	ldr r0,[fp,+0x6]
 aa6:	0102      	movts config,r0
 aa8:	1ee0      	b ae4 <_e_reg_write+0x7c>
 aaa:	0f4c 0400 	ldr r0,[fp,+0x6]
 aae:	0502      	movts status,r0
 ab0:	1ae0      	b ae4 <_e_reg_write+0x7c>
 ab2:	088b 0002 	mov r0,0x44
 ab6:	000b 1002 	movt r0,0x0
 aba:	0044      	ldr r0,[r0]
 abc:	290b 0002 	mov r1,0x48
 ac0:	200b 1002 	movt r1,0x0
 ac4:	2444      	ldr r1,[r1]
 ac6:	4ecc 0400 	ldr r2,[fp,+0x5]
 aca:	7f0b 00a2 	mov r3,0xaf8
 ace:	600b 1002 	movt r3,0x0
 ad2:	0d52      	jalr r3
 ad4:	0fdc 0400 	str r0,[fp,+0x7]
 ad8:	0fcc 0400 	ldr r0,[fp,+0x7]
 adc:	2e4c 0400 	ldr r1,[fp,+0x4]
 ae0:	2054      	str r1,[r0]
 ae2:	01a2      	nop
 ae4:	01a2      	nop
 ae6:	d4cc 2401 	ldr lr,[sp,+0x9]
 aea:	744c 2401 	ldr fp,[sp,+0x8]
 aee:	b41b 2404 	add sp,sp,32
 af2:	194f 0402 	rts
 af6:	01a2      	nop

00000af8 <_e_get_global_address>:
 af8:	745c 2701 	str fp,[sp],-0x8
 afc:	d4dc 2401 	str lr,[sp,+0x9]
 b00:	74ef 2402 	mov fp,sp
 b04:	0edc 0400 	str r0,[fp,+0x5]
 b08:	2e5c 0400 	str r1,[fp,+0x4]
 b0c:	4ddc 0400 	str r2,[fp,+0x3]
 b10:	2dcc 0400 	ldr r1,[fp,+0x3]
 b14:	000b 0002 	mov r0,0x0
 b18:	1e0b 1ff2 	movt r0,0xfff0
 b1c:	045a      	and r0,r1,r0
 b1e:	2033      	sub r1,r0,0
 b20:	0800      	beq b30 <_e_get_global_address+0x38>
 b22:	0dcc 0400 	ldr r0,[fp,+0x3]
 b26:	0f5c 0400 	str r0,[fp,+0x6]
 b2a:	0f4c 0400 	ldr r0,[fp,+0x6]
 b2e:	2de0      	b b88 <_e_get_global_address+0x90>
 b30:	0ecc 0400 	ldr r0,[fp,+0x5]
 b34:	23b3      	sub r1,r0,-1
 b36:	0500      	beq b40 <_e_get_global_address+0x48>
 b38:	0e4c 0400 	ldr r0,[fp,+0x4]
 b3c:	23b3      	sub r1,r0,-1
 b3e:	0910      	bne b50 <_e_get_global_address+0x58>
 b40:	110b 00c2 	mov r0,0xc88
 b44:	000b 1002 	movt r0,0x0
 b48:	0152      	jalr r0
 b4a:	0fdc 0400 	str r0,[fp,+0x7]
 b4e:	0fe0      	b b6c <_e_get_global_address+0x74>
 b50:	0ecc 0400 	ldr r0,[fp,+0x5]
 b54:	20d6      	lsl r1,r0,0x6
 b56:	0e4c 0400 	ldr r0,[fp,+0x4]
 b5a:	241a      	add r1,r1,r0
 b5c:	060b 0002 	mov r0,0x30
 b60:	000b 1002 	movt r0,0x0
 b64:	0044      	ldr r0,[r0]
 b66:	041a      	add r0,r1,r0
 b68:	0fdc 0400 	str r0,[fp,+0x7]
 b6c:	0dcc 0400 	ldr r0,[fp,+0x3]
 b70:	0f5c 0400 	str r0,[fp,+0x6]
 b74:	0fcc 0400 	ldr r0,[fp,+0x7]
 b78:	0296      	lsl r0,r0,0x14
 b7a:	2f4c 0400 	ldr r1,[fp,+0x6]
 b7e:	047a      	orr r0,r1,r0
 b80:	0f5c 0400 	str r0,[fp,+0x6]
 b84:	0f4c 0400 	ldr r0,[fp,+0x6]
 b88:	d4cc 2401 	ldr lr,[sp,+0x9]
 b8c:	744c 2401 	ldr fp,[sp,+0x8]
 b90:	b41b 2404 	add sp,sp,32
 b94:	194f 0402 	rts

00000b98 <_e_dma_busy>:
 b98:	765c 2700 	str fp,[sp],-0x4
 b9c:	d6dc 2400 	str lr,[sp,+0x5]
 ba0:	74ef 2402 	mov fp,sp
 ba4:	0ddc 0400 	str r0,[fp,+0x3]
 ba8:	0dcc 0400 	ldr r0,[fp,+0x3]
 bac:	2033      	sub r1,r0,0
 bae:	0400      	beq bb6 <_e_dma_busy+0x1e>
 bb0:	20b3      	sub r1,r0,1
 bb2:	0f00      	beq bd0 <_e_dma_busy+0x38>
 bb4:	1be0      	b bea <_e_dma_busy+0x52>
 bb6:	038b 0052 	mov r0,0x51c
 bba:	01eb 1002 	movt r0,0xf
 bbe:	208b 00c2 	mov r1,0xc04
 bc2:	200b 1002 	movt r1,0x0
 bc6:	0552      	jalr r1
 bc8:	20e2      	mov r1,r0
 bca:	01e3      	mov r0,0xf
 bcc:	045a      	and r0,r1,r0
 bce:	12e0      	b bf2 <_e_dma_busy+0x5a>
 bd0:	078b 0052 	mov r0,0x53c
 bd4:	01eb 1002 	movt r0,0xf
 bd8:	208b 00c2 	mov r1,0xc04
 bdc:	200b 1002 	movt r1,0x0
 be0:	0552      	jalr r1
 be2:	20e2      	mov r1,r0
 be4:	01e3      	mov r0,0xf
 be6:	045a      	and r0,r1,r0
 be8:	05e0      	b bf2 <_e_dma_busy+0x5a>
 bea:	1feb 0ff2 	mov r0,0xffff
 bee:	1feb 1ff2 	movt r0,0xffff
 bf2:	d6cc 2400 	ldr lr,[sp,+0x5]
 bf6:	764c 2400 	ldr fp,[sp,+0x4]
 bfa:	b41b 2402 	add sp,sp,16
 bfe:	194f 0402 	rts
 c02:	01a2      	nop

00000c04 <_e_reg_read>:
 c04:	775c 2700 	str fp,[sp],-0x6
 c08:	d7dc 2400 	str lr,[sp,+0x7]
 c0c:	74ef 2402 	mov fp,sp
 c10:	0ddc 0400 	str r0,[fp,+0x3]
 c14:	0dcc 0400 	ldr r0,[fp,+0x3]
 c18:	200b 0042 	mov r1,0x400
 c1c:	21eb 1002 	movt r1,0xf
 c20:	40ba      	sub r2,r0,r1
 c22:	0800      	beq c32 <_e_reg_read+0x2e>
 c24:	208b 0042 	mov r1,0x404
 c28:	21eb 1002 	movt r1,0xf
 c2c:	40ba      	sub r2,r0,r1
 c2e:	0800      	beq c3e <_e_reg_read+0x3a>
 c30:	0de0      	b c4a <_e_reg_read+0x46>
 c32:	0112      	movfs r0,config
 c34:	0e5c 0400 	str r0,[fp,+0x4]
 c38:	0e4c 0400 	ldr r0,[fp,+0x4]
 c3c:	1de0      	b c76 <_e_reg_read+0x72>
 c3e:	0512      	movfs r0,status
 c40:	0e5c 0400 	str r0,[fp,+0x4]
 c44:	0e4c 0400 	ldr r0,[fp,+0x4]
 c48:	17e0      	b c76 <_e_reg_read+0x72>
 c4a:	088b 0002 	mov r0,0x44
 c4e:	000b 1002 	movt r0,0x0
 c52:	0044      	ldr r0,[r0]
 c54:	290b 0002 	mov r1,0x48
 c58:	200b 1002 	movt r1,0x0
 c5c:	2444      	ldr r1,[r1]
 c5e:	4dcc 0400 	ldr r2,[fp,+0x3]
 c62:	7f0b 00a2 	mov r3,0xaf8
 c66:	600b 1002 	movt r3,0x0
 c6a:	0d52      	jalr r3
 c6c:	0edc 0400 	str r0,[fp,+0x5]
 c70:	0ecc 0400 	ldr r0,[fp,+0x5]
 c74:	0044      	ldr r0,[r0]
 c76:	d7cc 2400 	ldr lr,[sp,+0x7]
 c7a:	774c 2400 	ldr fp,[sp,+0x6]
 c7e:	b41b 2403 	add sp,sp,24
 c82:	194f 0402 	rts
 c86:	01a2      	nop

00000c88 <_e_get_coreid>:
 c88:	765c 2700 	str fp,[sp],-0x4
 c8c:	74ef 2402 	mov fp,sp
 c90:	051f 0032 	movfs r0,coreid
 c94:	764c 2400 	ldr fp,[sp,+0x4]
 c98:	b41b 2402 	add sp,sp,16
 c9c:	194f 0402 	rts

00000ca0 <___do_global_ctors_aux>:
 ca0:	008b 00d2 	mov r0,0xd04
 ca4:	000b 1002 	movt r0,0x0
 ca8:	00cc 0100 	ldr r0,[r0,-0x1]
 cac:	965c 0700 	str r4,[sp],-0x4
 cb0:	76dc 2400 	str fp,[sp,+0x5]
 cb4:	9f8b 00c2 	mov r4,0xcfc
 cb8:	d5dc 2400 	str lr,[sp,+0x3]
 cbc:	23b3      	sub r1,r0,-1
 cbe:	800b 1002 	movt r4,0x0
 cc2:	0600      	beq cce <___do_global_ctors_aux+0x2e>
 cc4:	0152      	jalr r0
 cc6:	10cc 0300 	ldr r0,[r4],-0x1
 cca:	23b3      	sub r1,r0,-1
 ccc:	fc10      	bne cc4 <___do_global_ctors_aux+0x24>
 cce:	76cc 2400 	ldr fp,[sp,+0x5]
 cd2:	964c 0400 	ldr r4,[sp,+0x4]
 cd6:	d5cc 2400 	ldr lr,[sp,+0x3]
 cda:	b41b 2402 	add sp,sp,16
 cde:	194f 0402 	rts
 ce2:	01a2 	nop

Disassembly of section .fini:

00000ce4 <fini>:
 ce4:	d65c 2700 	str lr,[sp],-0x4
 ce8:	0d8b 0072 	mov r0,0x76c
 cec:	000b 1002 	movt r0,0x0
 cf0:	0152      	jalr r0
 cf2:	d64c 2400 	ldr lr,[sp,+0x4]
 cf6:	b41b 2402 	add sp,sp,16
 cfa:	194f 0402 	rts
